
dhrystone.elf:     file format elf32-littleriscv
dhrystone.elf
architecture: riscv:rv32, flags 0x00000112:
EXEC_P, HAS_SYMS, D_PAGED
start address 0x00040000

Program Header:
0x70000003 off    0x00013e03 vaddr 0x00000000 paddr 0x00000000 align 2**0
         filesz 0x00000051 memsz 0x00000000 flags r--
    LOAD off    0x00001000 vaddr 0x00040000 paddr 0x00040000 align 2**12
         filesz 0x0000412c memsz 0x00006aa4 flags rwx
   STACK off    0x00000000 vaddr 0x00000000 paddr 0x00000000 align 2**4
         filesz 0x00000000 memsz 0x00000000 flags rw-

Sections:
Idx Name              Size      VMA       LMA       File off  Algn  Flags
  0 .text             000033dc  00040000  00040000  00001000  2**2  CONTENTS, ALLOC, LOAD, READONLY, CODE
  1 .rodata           00000810  000433dc  000433dc  000043dc  2**2  CONTENTS, ALLOC, LOAD, READONLY, DATA
  2 .data             00000528  00043bf0  00043bf0  00004bf0  2**3  CONTENTS, ALLOC, LOAD, DATA
  3 .sdata            00000014  00044118  00044118  00005118  2**2  CONTENTS, ALLOC, LOAD, DATA
  4 .sbss             00000040  0004412c  0004412c  0000512c  2**2  ALLOC
  5 .bss              00002938  0004416c  0004416c  0000512c  2**2  ALLOC
  6 .debug_info       00003ed4  00000000  00000000  0000512c  2**0  CONTENTS, READONLY, DEBUGGING, OCTETS
  7 .debug_abbrev     000013a7  00000000  00000000  00009000  2**0  CONTENTS, READONLY, DEBUGGING, OCTETS
  8 .debug_loclists   000022a1  00000000  00000000  0000a3a7  2**0  CONTENTS, READONLY, DEBUGGING, OCTETS
  9 .debug_aranges    00000370  00000000  00000000  0000c648  2**3  CONTENTS, READONLY, DEBUGGING, OCTETS
 10 .debug_rnglists   00000441  00000000  00000000  0000c9b8  2**0  CONTENTS, READONLY, DEBUGGING, OCTETS
 11 .debug_line       000057f1  00000000  00000000  0000cdf9  2**0  CONTENTS, READONLY, DEBUGGING, OCTETS
 12 .debug_str        00001245  00000000  00000000  000125ea  2**0  CONTENTS, READONLY, DEBUGGING, OCTETS
 13 .debug_line_str   00000597  00000000  00000000  0001382f  2**0  CONTENTS, READONLY, DEBUGGING, OCTETS
 14 .comment          0000003d  00000000  00000000  00013dc6  2**0  CONTENTS, READONLY
 15 .riscv.attributes 00000051  00000000  00000000  00013e03  2**0  CONTENTS, READONLY
 16 .debug_frame      000006ac  00000000  00000000  00013e54  2**2  CONTENTS, READONLY, DEBUGGING, OCTETS
SYMBOL TABLE:
00040000 l    d  .text	00000000 .text
000433dc l    d  .rodata	00000000 .rodata
00043bf0 l    d  .data	00000000 .data
00044118 l    d  .sdata	00000000 .sdata
0004412c l    d  .sbss	00000000 .sbss
0004416c l    d  .bss	00000000 .bss
00000000 l    d  .debug_info	00000000 .debug_info
00000000 l    d  .debug_abbrev	00000000 .debug_abbrev
00000000 l    d  .debug_loclists	00000000 .debug_loclists
00000000 l    d  .debug_aranges	00000000 .debug_aranges
00000000 l    d  .debug_rnglists	00000000 .debug_rnglists
00000000 l    d  .debug_line	00000000 .debug_line
00000000 l    d  .debug_str	00000000 .debug_str
00000000 l    d  .debug_line_str	00000000 .debug_line_str
00000000 l    d  .comment	00000000 .comment
00000000 l    d  .riscv.attributes	00000000 .riscv.attributes
00000000 l    d  .debug_frame	00000000 .debug_frame
00000000 l    df *ABS*	00000000 crt0.o
000400ec l       .text	00000000 trap_entry
000400c8 l       .text	00000000 clear_bss_b_check
000400b8 l       .text	00000000 clear_bss_w_loop
000400dc l       .text	00000000 call_main
000400cc l       .text	00000000 clear_bss_b_loop
000400e8 l       .text	00000000 forever
00000000 l    df *ABS*	00000000 cc6vQk7e.o
00000000 l    df *ABS*	00000000 libgcc2.c
00000000 l    df *ABS*	00000000 divsf3.c
00000000 l    df *ABS*	00000000 mulsf3.c
00000000 l    df *ABS*	00000000 fixsfsi.c
00000000 l    df *ABS*	00000000 floatsisf.c
00000000 l    df *ABS*	00000000 muldi3.o
00000000 l    df *ABS*	00000000 div.o
00000000 l    df *ABS*	00000000 libgcc2.c
00000000 l    df *ABS*	00000000 dhry_1.c
00000000 l    df *ABS*	00000000 dhry_2.c
00000000 l    df *ABS*	00000000 dhry_time.c
00000000 l    df *ABS*	00000000 common.c
00000000 l    df *ABS*	00000000 mini-printf.c
00041e88 l     F .text	00000028 mini_strlen
00041eb0 l     F .text	00000168 mini_itoa
00042018 l     F .text	0000020c mini_pad
00042224 l     F .text	00000074 _puts
00000000 l    df *ABS*	00000000 newlib_defs.c
00044158 l     O .sbss	00000004 heap.0
00000000 l    df *ABS*	00000000 malloc.c
00000000 l    df *ABS*	00000000 mallocr.c
00000000 l    df *ABS*	00000000 mlock.c
00000000 l    df *ABS*	00000000 sbrkr.c
00000000 l    df *ABS*	00000000 init.c
00000000 l    df *ABS*	00000000 strcpy.c
00000000 l    df *ABS*	00000000 freer.c
00000000 l    df *ABS*	00000000 libgcc2.c
00000000 l    df *ABS*	00000000 impure.c
00044130 g     O .sbss	00000004 Microseconds
00042f08 g     F .text	000000a4 strcpy
0004412c g     O .sbss	00000004 Dhrystones_Per_Second
00044918 g       *ABS*	00000000 __global_pointer$
00042e1c g     F .text	00000004 __malloc_unlock
00040944 g     F .text	00000374 .hidden __divsf3
000412d0 g     F .text	00000024 Proc_3
00044134 g     O .sbss	00000004 User_Time
0004413c g     O .sbss	00000004 Begin_Time
00041004 g     F .text	00000070 .hidden __fixsfsi
00041d98 g     F .text	00000054 mini_printf
00041af8 g     F .text	00000010 Proc_7
00044168 g     O .sbss	00000004 errno
00044118 g       .sdata	00000000 __SDATA_BEGIN__
000411b0 g     F .text	00000048 .hidden __hidden___udivsi3
000425fc g     F .text	0000000c malloc
000411b0 g     F .text	00000048 .hidden __udivsi3
00044164 g     O .sbss	00000004 __malloc_top_pad
00041444 g     F .text	00000024 Proc_4
00042e20 g     F .text	0000005c _sbrk_r
0004416c g     O .bss	00002710 Arr_2_Glob
00044160 g     O .sbss	00000004 __malloc_max_sbrked_mem
00042e7c g     F .text	0000008c __libc_init_array
0004037c g     F .text	000005c8 .hidden __udivdi3
000425d4 g     F .text	00000028 _sbrk
00044138 g     O .sbss	00000004 End_Time
00044150 g     O .sbss	00000004 Next_Ptr_Glob
00041b08 g     F .text	00000064 Proc_8
00041cfc g     F .text	00000018 send_byte_uart0
00041e2c  w    F .text	0000005c trap_handler
0004696c g     O .bss	00000138 __sf
00050000 g       .bss	00000000 __stack_top
000411f8 g     F .text	00000010 .hidden __umodsi3
00041b6c g     F .text	00000020 Func_1
0004125c g     F .text	0000004c .hidden __clzsi2
000430ec g     F .text	000002f0 _free_r
00044140 g     O .sbss	00000004 Reg
00044120 g     O .sdata	00000004 __malloc_sbrk_base
00040000 g       .text	00000000 _start
0004414c g     O .sbss	00000004 Int_Glob
00041e00  w    F .text	0000002c timer_interrupt_handler
00041074 g     F .text	00000110 .hidden __floatsisf
00044145 g     O .sbss	00000001 Ch_1_Glob
00041184 g     F .text	00000024 .hidden __mulsi3
00046944 g     O .bss	00000028 __malloc_current_mallinfo
00041c08 g     F .text	0000000c Func_3
000412f4 g     F .text	00000150 Proc_1
00044144 g     O .sbss	00000001 Ch_2_Glob
00044154 g     O .sbss	00000004 Ptr_Glob
00046aa4 g       .bss	00000000 __BSS_END__
00043bf0 g     O .data	00000408 __malloc_av_
00042e18 g     F .text	00000004 __malloc_lock
00042298 g     F .text	0000033c mini_vpprintf
0004412c g       .sdata	00000000 __bss_start
00041478 g     F .text	00000680 main
0004415c g     O .sbss	00000004 __malloc_max_total_mem
00042608 g     F .text	00000810 _malloc_r
000411a8 g     F .text	00000084 .hidden __divsi3
00042fac g     F .text	00000140 _malloc_trim_r
00040cb8 g     F .text	0000034c .hidden __mulsf3
00040200 g     F .text	0000017c strcmp
00041d64 g     F .text	00000034 __puts_uart
00043418 g     O .rodata	00000100 .hidden __clz_tab
00044128 g     O .sdata	00000004 _impure_ptr
000412a8 g     F .text	00000028 Proc_2
00041b8c g     F .text	0000007c Func_2
00041cd4 g     F .text	00000028 time_s
00041c14 g     F .text	000000c0 Proc_6
00043bf0 g       .data	00000000 __DATA_BEGIN__
00041d14 g     F .text	00000050 _write
00046aa4 g       .bss	00000000 _end
00044124 g     O .sdata	00000004 __malloc_trim_threshold
0004687c g     O .bss	000000c8 Arr_1_Glob
0004122c g     F .text	00000030 .hidden __modsi3
00041dec g     F .text	00000014 get_cpu_time
00043ff8 g     O .data	00000120 _impure_data
00041468 g     F .text	00000010 Proc_5
00044148 g     O .sbss	00000004 Bool_Glob



Disassembly of section .text:

00040000 <_start>:
   40000:	00000093          	addi	x1,x0,0
   40004:	00000113          	addi	x2,x0,0
   40008:	00000193          	addi	x3,x0,0
   4000c:	00000213          	addi	x4,x0,0
   40010:	00000293          	addi	x5,x0,0
   40014:	00000313          	addi	x6,x0,0
   40018:	00000393          	addi	x7,x0,0
   4001c:	00000413          	addi	x8,x0,0
   40020:	00000493          	addi	x9,x0,0
   40024:	00000513          	addi	x10,x0,0
   40028:	00000593          	addi	x11,x0,0
   4002c:	00000613          	addi	x12,x0,0
   40030:	00000693          	addi	x13,x0,0
   40034:	00000713          	addi	x14,x0,0
   40038:	00000793          	addi	x15,x0,0
   4003c:	00000813          	addi	x16,x0,0
   40040:	00000893          	addi	x17,x0,0
   40044:	00000913          	addi	x18,x0,0
   40048:	00000993          	addi	x19,x0,0
   4004c:	00000a13          	addi	x20,x0,0
   40050:	00000a93          	addi	x21,x0,0
   40054:	00000b13          	addi	x22,x0,0
   40058:	00000b93          	addi	x23,x0,0
   4005c:	00000c13          	addi	x24,x0,0
   40060:	00000c93          	addi	x25,x0,0
   40064:	00000d13          	addi	x26,x0,0
   40068:	00000d93          	addi	x27,x0,0
   4006c:	00000e13          	addi	x28,x0,0
   40070:	00000e93          	addi	x29,x0,0
   40074:	00000f13          	addi	x30,x0,0
   40078:	00000f93          	addi	x31,x0,0
   4007c:	00000297          	auipc	x5,0x0
   40080:	07028293          	addi	x5,x5,112 # 400ec <trap_entry>
   40084:	30529073          	csrrw	x0,mtvec,x5
   40088:	00005197          	auipc	x3,0x5
   4008c:	89018193          	addi	x3,x3,-1904 # 44918 <__global_pointer$>
   40090:	00010117          	auipc	x2,0x10
   40094:	f7010113          	addi	x2,x2,-144 # 50000 <__stack_top>
   40098:	00004517          	auipc	x10,0x4
   4009c:	09450513          	addi	x10,x10,148 # 4412c <Dhrystones_Per_Second>
   400a0:	00007597          	auipc	x11,0x7
   400a4:	a0458593          	addi	x11,x11,-1532 # 46aa4 <__BSS_END__>
   400a8:	40a58633          	sub	x12,x11,x10
   400ac:	00265693          	srli	x13,x12,0x2
   400b0:	00367713          	andi	x14,x12,3
   400b4:	00068a63          	beq	x13,x0,400c8 <clear_bss_b_check>

000400b8 <clear_bss_w_loop>:
   400b8:	00052023          	sw	x0,0(x10)
   400bc:	00450513          	addi	x10,x10,4
   400c0:	fff68693          	addi	x13,x13,-1
   400c4:	fe069ae3          	bne	x13,x0,400b8 <clear_bss_w_loop>

000400c8 <clear_bss_b_check>:
   400c8:	00070a63          	beq	x14,x0,400dc <call_main>

000400cc <clear_bss_b_loop>:
   400cc:	00050023          	sb	x0,0(x10)
   400d0:	00150513          	addi	x10,x10,1
   400d4:	fff70713          	addi	x14,x14,-1
   400d8:	fe071ae3          	bne	x14,x0,400cc <clear_bss_b_loop>

000400dc <call_main>:
   400dc:	5a1020ef          	jal	x1,42e7c <__libc_init_array>
   400e0:	398010ef          	jal	x1,41478 <main>
   400e4:	00000073          	ecall

000400e8 <forever>:
   400e8:	0000006f          	jal	x0,400e8 <forever>

000400ec <trap_entry>:
   400ec:	ef010113          	addi	x2,x2,-272
   400f0:	00112223          	sw	x1,4(x2)
   400f4:	00212423          	sw	x2,8(x2)
   400f8:	00312623          	sw	x3,12(x2)
   400fc:	00412823          	sw	x4,16(x2)
   40100:	00512a23          	sw	x5,20(x2)
   40104:	00612c23          	sw	x6,24(x2)
   40108:	00712e23          	sw	x7,28(x2)
   4010c:	02812023          	sw	x8,32(x2)
   40110:	02912223          	sw	x9,36(x2)
   40114:	02a12423          	sw	x10,40(x2)
   40118:	02b12623          	sw	x11,44(x2)
   4011c:	02c12823          	sw	x12,48(x2)
   40120:	02d12a23          	sw	x13,52(x2)
   40124:	02e12c23          	sw	x14,56(x2)
   40128:	02f12e23          	sw	x15,60(x2)
   4012c:	05012023          	sw	x16,64(x2)
   40130:	05112223          	sw	x17,68(x2)
   40134:	05212423          	sw	x18,72(x2)
   40138:	05312623          	sw	x19,76(x2)
   4013c:	05412823          	sw	x20,80(x2)
   40140:	05512a23          	sw	x21,84(x2)
   40144:	05612c23          	sw	x22,88(x2)
   40148:	05712e23          	sw	x23,92(x2)
   4014c:	07812023          	sw	x24,96(x2)
   40150:	07912223          	sw	x25,100(x2)
   40154:	07a12423          	sw	x26,104(x2)
   40158:	07b12623          	sw	x27,108(x2)
   4015c:	07c12823          	sw	x28,112(x2)
   40160:	07d12a23          	sw	x29,116(x2)
   40164:	07e12c23          	sw	x30,120(x2)
   40168:	07f12e23          	sw	x31,124(x2)
   4016c:	34202573          	csrrs	x10,mcause,x0
   40170:	341025f3          	csrrs	x11,mepc,x0
   40174:	00010613          	addi	x12,x2,0
   40178:	4b5010ef          	jal	x1,41e2c <trap_handler>
   4017c:	00412083          	lw	x1,4(x2)
   40180:	00812103          	lw	x2,8(x2)
   40184:	00c12183          	lw	x3,12(x2)
   40188:	01012203          	lw	x4,16(x2)
   4018c:	01412283          	lw	x5,20(x2)
   40190:	01812303          	lw	x6,24(x2)
   40194:	01c12383          	lw	x7,28(x2)
   40198:	02012403          	lw	x8,32(x2)
   4019c:	02412483          	lw	x9,36(x2)
   401a0:	02812503          	lw	x10,40(x2)
   401a4:	02c12583          	lw	x11,44(x2)
   401a8:	03012603          	lw	x12,48(x2)
   401ac:	03412683          	lw	x13,52(x2)
   401b0:	03812703          	lw	x14,56(x2)
   401b4:	03c12783          	lw	x15,60(x2)
   401b8:	04012803          	lw	x16,64(x2)
   401bc:	04412883          	lw	x17,68(x2)
   401c0:	04812903          	lw	x18,72(x2)
   401c4:	04c12983          	lw	x19,76(x2)
   401c8:	05012a03          	lw	x20,80(x2)
   401cc:	05412a83          	lw	x21,84(x2)
   401d0:	05812b03          	lw	x22,88(x2)
   401d4:	05c12b83          	lw	x23,92(x2)
   401d8:	06012c03          	lw	x24,96(x2)
   401dc:	06412c83          	lw	x25,100(x2)
   401e0:	06812d03          	lw	x26,104(x2)
   401e4:	06c12d83          	lw	x27,108(x2)
   401e8:	07012e03          	lw	x28,112(x2)
   401ec:	07412e83          	lw	x29,116(x2)
   401f0:	07812f03          	lw	x30,120(x2)
   401f4:	07c12f83          	lw	x31,124(x2)
   401f8:	11010113          	addi	x2,x2,272
   401fc:	30200073          	mret

00040200 <strcmp>:
   40200:	00b56733          	or	x14,x10,x11
   40204:	fff00393          	addi	x7,x0,-1
   40208:	00377713          	andi	x14,x14,3
   4020c:	10071063          	bne	x14,x0,4030c <strcmp+0x10c>
   40210:	7f7f87b7          	lui	x15,0x7f7f8
   40214:	f7f78793          	addi	x15,x15,-129 # 7f7f7f7f <__stack_top+0x7f7a7f7f>
   40218:	00052603          	lw	x12,0(x10)
   4021c:	0005a683          	lw	x13,0(x11)
   40220:	00f672b3          	and	x5,x12,x15
   40224:	00f66333          	or	x6,x12,x15
   40228:	00f282b3          	add	x5,x5,x15
   4022c:	0062e2b3          	or	x5,x5,x6
   40230:	10729263          	bne	x5,x7,40334 <strcmp+0x134>
   40234:	08d61663          	bne	x12,x13,402c0 <strcmp+0xc0>
   40238:	00452603          	lw	x12,4(x10)
   4023c:	0045a683          	lw	x13,4(x11)
   40240:	00f672b3          	and	x5,x12,x15
   40244:	00f66333          	or	x6,x12,x15
   40248:	00f282b3          	add	x5,x5,x15
   4024c:	0062e2b3          	or	x5,x5,x6
   40250:	0c729e63          	bne	x5,x7,4032c <strcmp+0x12c>
   40254:	06d61663          	bne	x12,x13,402c0 <strcmp+0xc0>
   40258:	00852603          	lw	x12,8(x10)
   4025c:	0085a683          	lw	x13,8(x11)
   40260:	00f672b3          	and	x5,x12,x15
   40264:	00f66333          	or	x6,x12,x15
   40268:	00f282b3          	add	x5,x5,x15
   4026c:	0062e2b3          	or	x5,x5,x6
   40270:	0c729863          	bne	x5,x7,40340 <strcmp+0x140>
   40274:	04d61663          	bne	x12,x13,402c0 <strcmp+0xc0>
   40278:	00c52603          	lw	x12,12(x10)
   4027c:	00c5a683          	lw	x13,12(x11)
   40280:	00f672b3          	and	x5,x12,x15
   40284:	00f66333          	or	x6,x12,x15
   40288:	00f282b3          	add	x5,x5,x15
   4028c:	0062e2b3          	or	x5,x5,x6
   40290:	0c729263          	bne	x5,x7,40354 <strcmp+0x154>
   40294:	02d61663          	bne	x12,x13,402c0 <strcmp+0xc0>
   40298:	01052603          	lw	x12,16(x10)
   4029c:	0105a683          	lw	x13,16(x11)
   402a0:	00f672b3          	and	x5,x12,x15
   402a4:	00f66333          	or	x6,x12,x15
   402a8:	00f282b3          	add	x5,x5,x15
   402ac:	0062e2b3          	or	x5,x5,x6
   402b0:	0a729c63          	bne	x5,x7,40368 <strcmp+0x168>
   402b4:	01450513          	addi	x10,x10,20
   402b8:	01458593          	addi	x11,x11,20
   402bc:	f4d60ee3          	beq	x12,x13,40218 <strcmp+0x18>
   402c0:	01061713          	slli	x14,x12,0x10
   402c4:	01069793          	slli	x15,x13,0x10
   402c8:	00f71e63          	bne	x14,x15,402e4 <strcmp+0xe4>
   402cc:	01065713          	srli	x14,x12,0x10
   402d0:	0106d793          	srli	x15,x13,0x10
   402d4:	40f70533          	sub	x10,x14,x15
   402d8:	0ff57593          	andi	x11,x10,255
   402dc:	02059063          	bne	x11,x0,402fc <strcmp+0xfc>
   402e0:	00008067          	jalr	x0,0(x1)
   402e4:	01075713          	srli	x14,x14,0x10
   402e8:	0107d793          	srli	x15,x15,0x10
   402ec:	40f70533          	sub	x10,x14,x15
   402f0:	0ff57593          	andi	x11,x10,255
   402f4:	00059463          	bne	x11,x0,402fc <strcmp+0xfc>
   402f8:	00008067          	jalr	x0,0(x1)
   402fc:	0ff77713          	andi	x14,x14,255
   40300:	0ff7f793          	andi	x15,x15,255
   40304:	40f70533          	sub	x10,x14,x15
   40308:	00008067          	jalr	x0,0(x1)
   4030c:	00054603          	lbu	x12,0(x10)
   40310:	0005c683          	lbu	x13,0(x11)
   40314:	00150513          	addi	x10,x10,1
   40318:	00158593          	addi	x11,x11,1
   4031c:	00d61463          	bne	x12,x13,40324 <strcmp+0x124>
   40320:	fe0616e3          	bne	x12,x0,4030c <strcmp+0x10c>
   40324:	40d60533          	sub	x10,x12,x13
   40328:	00008067          	jalr	x0,0(x1)
   4032c:	00450513          	addi	x10,x10,4
   40330:	00458593          	addi	x11,x11,4
   40334:	fcd61ce3          	bne	x12,x13,4030c <strcmp+0x10c>
   40338:	00000513          	addi	x10,x0,0
   4033c:	00008067          	jalr	x0,0(x1)
   40340:	00850513          	addi	x10,x10,8
   40344:	00858593          	addi	x11,x11,8
   40348:	fcd612e3          	bne	x12,x13,4030c <strcmp+0x10c>
   4034c:	00000513          	addi	x10,x0,0
   40350:	00008067          	jalr	x0,0(x1)
   40354:	00c50513          	addi	x10,x10,12
   40358:	00c58593          	addi	x11,x11,12
   4035c:	fad618e3          	bne	x12,x13,4030c <strcmp+0x10c>
   40360:	00000513          	addi	x10,x0,0
   40364:	00008067          	jalr	x0,0(x1)
   40368:	01050513          	addi	x10,x10,16
   4036c:	01058593          	addi	x11,x11,16
   40370:	f8d61ee3          	bne	x12,x13,4030c <strcmp+0x10c>
   40374:	00000513          	addi	x10,x0,0
   40378:	00008067          	jalr	x0,0(x1)

0004037c <__udivdi3>:
   4037c:	fd010113          	addi	x2,x2,-48
   40380:	01412c23          	sw	x20,24(x2)
   40384:	02112623          	sw	x1,44(x2)
   40388:	02812423          	sw	x8,40(x2)
   4038c:	02912223          	sw	x9,36(x2)
   40390:	03212023          	sw	x18,32(x2)
   40394:	01312e23          	sw	x19,28(x2)
   40398:	01512a23          	sw	x21,20(x2)
   4039c:	01612823          	sw	x22,16(x2)
   403a0:	01712623          	sw	x23,12(x2)
   403a4:	01812423          	sw	x24,8(x2)
   403a8:	01912223          	sw	x25,4(x2)
   403ac:	01a12023          	sw	x26,0(x2)
   403b0:	00050a13          	addi	x20,x10,0
   403b4:	38069663          	bne	x13,x0,40740 <__udivdi3+0x3c4>
   403b8:	000437b7          	lui	x15,0x43
   403bc:	00060993          	addi	x19,x12,0
   403c0:	00050493          	addi	x9,x10,0
   403c4:	41878793          	addi	x15,x15,1048 # 43418 <__clz_tab>
   403c8:	12c5f863          	bgeu	x11,x12,404f8 <__udivdi3+0x17c>
   403cc:	00010737          	lui	x14,0x10
   403d0:	00058913          	addi	x18,x11,0
   403d4:	10e67863          	bgeu	x12,x14,404e4 <__udivdi3+0x168>
   403d8:	10063713          	sltiu	x14,x12,256
   403dc:	00173713          	sltiu	x14,x14,1
   403e0:	00371713          	slli	x14,x14,0x3
   403e4:	00e656b3          	srl	x13,x12,x14
   403e8:	00d787b3          	add	x15,x15,x13
   403ec:	0007c783          	lbu	x15,0(x15)
   403f0:	02000693          	addi	x13,x0,32
   403f4:	00e787b3          	add	x15,x15,x14
   403f8:	40f68733          	sub	x14,x13,x15
   403fc:	00f68c63          	beq	x13,x15,40414 <__udivdi3+0x98>
   40400:	00e59933          	sll	x18,x11,x14
   40404:	00fa57b3          	srl	x15,x20,x15
   40408:	00e619b3          	sll	x19,x12,x14
   4040c:	0127e933          	or	x18,x15,x18
   40410:	00ea14b3          	sll	x9,x20,x14
   40414:	0109da93          	srli	x21,x19,0x10
   40418:	000a8593          	addi	x11,x21,0
   4041c:	00090513          	addi	x10,x18,0
   40420:	01099b13          	slli	x22,x19,0x10
   40424:	58d000ef          	jal	x1,411b0 <__hidden___udivsi3>
   40428:	010b5b13          	srli	x22,x22,0x10
   4042c:	00050593          	addi	x11,x10,0
   40430:	00050a13          	addi	x20,x10,0
   40434:	000b0513          	addi	x10,x22,0
   40438:	54d000ef          	jal	x1,41184 <__mulsi3>
   4043c:	00050413          	addi	x8,x10,0
   40440:	000a8593          	addi	x11,x21,0
   40444:	00090513          	addi	x10,x18,0
   40448:	5b1000ef          	jal	x1,411f8 <__umodsi3>
   4044c:	01051513          	slli	x10,x10,0x10
   40450:	0104d713          	srli	x14,x9,0x10
   40454:	00a76733          	or	x14,x14,x10
   40458:	000a0913          	addi	x18,x20,0
   4045c:	00877e63          	bgeu	x14,x8,40478 <__udivdi3+0xfc>
   40460:	00e98733          	add	x14,x19,x14
   40464:	fffa0913          	addi	x18,x20,-1
   40468:	01376863          	bltu	x14,x19,40478 <__udivdi3+0xfc>
   4046c:	00877663          	bgeu	x14,x8,40478 <__udivdi3+0xfc>
   40470:	ffea0913          	addi	x18,x20,-2
   40474:	01370733          	add	x14,x14,x19
   40478:	40870433          	sub	x8,x14,x8
   4047c:	000a8593          	addi	x11,x21,0
   40480:	00040513          	addi	x10,x8,0
   40484:	52d000ef          	jal	x1,411b0 <__hidden___udivsi3>
   40488:	00050593          	addi	x11,x10,0
   4048c:	00050a13          	addi	x20,x10,0
   40490:	000b0513          	addi	x10,x22,0
   40494:	4f1000ef          	jal	x1,41184 <__mulsi3>
   40498:	00050b13          	addi	x22,x10,0
   4049c:	000a8593          	addi	x11,x21,0
   404a0:	00040513          	addi	x10,x8,0
   404a4:	555000ef          	jal	x1,411f8 <__umodsi3>
   404a8:	01049493          	slli	x9,x9,0x10
   404ac:	01051513          	slli	x10,x10,0x10
   404b0:	0104d493          	srli	x9,x9,0x10
   404b4:	00a4e4b3          	or	x9,x9,x10
   404b8:	000a0713          	addi	x14,x20,0
   404bc:	0164fc63          	bgeu	x9,x22,404d4 <__udivdi3+0x158>
   404c0:	009984b3          	add	x9,x19,x9
   404c4:	fffa0713          	addi	x14,x20,-1
   404c8:	0134e663          	bltu	x9,x19,404d4 <__udivdi3+0x158>
   404cc:	0164f463          	bgeu	x9,x22,404d4 <__udivdi3+0x158>
   404d0:	ffea0713          	addi	x14,x20,-2
   404d4:	01091793          	slli	x15,x18,0x10
   404d8:	00e7e7b3          	or	x15,x15,x14
   404dc:	00000913          	addi	x18,x0,0
   404e0:	1200006f          	jal	x0,40600 <__udivdi3+0x284>
   404e4:	010006b7          	lui	x13,0x1000
   404e8:	01800713          	addi	x14,x0,24
   404ec:	eed67ce3          	bgeu	x12,x13,403e4 <__udivdi3+0x68>
   404f0:	01000713          	addi	x14,x0,16
   404f4:	ef1ff06f          	jal	x0,403e4 <__udivdi3+0x68>
   404f8:	00000713          	addi	x14,x0,0
   404fc:	00060c63          	beq	x12,x0,40514 <__udivdi3+0x198>
   40500:	00010737          	lui	x14,0x10
   40504:	12e67e63          	bgeu	x12,x14,40640 <__udivdi3+0x2c4>
   40508:	10063713          	sltiu	x14,x12,256
   4050c:	00173713          	sltiu	x14,x14,1
   40510:	00371713          	slli	x14,x14,0x3
   40514:	00e656b3          	srl	x13,x12,x14
   40518:	00d787b3          	add	x15,x15,x13
   4051c:	0007c783          	lbu	x15,0(x15)
   40520:	02000693          	addi	x13,x0,32
   40524:	00e787b3          	add	x15,x15,x14
   40528:	40f68733          	sub	x14,x13,x15
   4052c:	12f69463          	bne	x13,x15,40654 <__udivdi3+0x2d8>
   40530:	40c58a33          	sub	x20,x11,x12
   40534:	00100913          	addi	x18,x0,1
   40538:	0109db13          	srli	x22,x19,0x10
   4053c:	000b0593          	addi	x11,x22,0
   40540:	000a0513          	addi	x10,x20,0
   40544:	01099b93          	slli	x23,x19,0x10
   40548:	469000ef          	jal	x1,411b0 <__hidden___udivsi3>
   4054c:	010bdb93          	srli	x23,x23,0x10
   40550:	00050593          	addi	x11,x10,0
   40554:	00050c13          	addi	x24,x10,0
   40558:	000b8513          	addi	x10,x23,0
   4055c:	429000ef          	jal	x1,41184 <__mulsi3>
   40560:	00050a93          	addi	x21,x10,0
   40564:	000b0593          	addi	x11,x22,0
   40568:	000a0513          	addi	x10,x20,0
   4056c:	48d000ef          	jal	x1,411f8 <__umodsi3>
   40570:	01051513          	slli	x10,x10,0x10
   40574:	0104d713          	srli	x14,x9,0x10
   40578:	00a76733          	or	x14,x14,x10
   4057c:	000c0a13          	addi	x20,x24,0
   40580:	01577e63          	bgeu	x14,x21,4059c <__udivdi3+0x220>
   40584:	00e98733          	add	x14,x19,x14
   40588:	fffc0a13          	addi	x20,x24,-1
   4058c:	01376863          	bltu	x14,x19,4059c <__udivdi3+0x220>
   40590:	01577663          	bgeu	x14,x21,4059c <__udivdi3+0x220>
   40594:	ffec0a13          	addi	x20,x24,-2
   40598:	01370733          	add	x14,x14,x19
   4059c:	41570433          	sub	x8,x14,x21
   405a0:	000b0593          	addi	x11,x22,0
   405a4:	00040513          	addi	x10,x8,0
   405a8:	409000ef          	jal	x1,411b0 <__hidden___udivsi3>
   405ac:	00050593          	addi	x11,x10,0
   405b0:	00050a93          	addi	x21,x10,0
   405b4:	000b8513          	addi	x10,x23,0
   405b8:	3cd000ef          	jal	x1,41184 <__mulsi3>
   405bc:	00050b93          	addi	x23,x10,0
   405c0:	000b0593          	addi	x11,x22,0
   405c4:	00040513          	addi	x10,x8,0
   405c8:	431000ef          	jal	x1,411f8 <__umodsi3>
   405cc:	01049493          	slli	x9,x9,0x10
   405d0:	01051513          	slli	x10,x10,0x10
   405d4:	0104d493          	srli	x9,x9,0x10
   405d8:	00a4e4b3          	or	x9,x9,x10
   405dc:	000a8713          	addi	x14,x21,0
   405e0:	0174fc63          	bgeu	x9,x23,405f8 <__udivdi3+0x27c>
   405e4:	009984b3          	add	x9,x19,x9
   405e8:	fffa8713          	addi	x14,x21,-1
   405ec:	0134e663          	bltu	x9,x19,405f8 <__udivdi3+0x27c>
   405f0:	0174f463          	bgeu	x9,x23,405f8 <__udivdi3+0x27c>
   405f4:	ffea8713          	addi	x14,x21,-2
   405f8:	010a1793          	slli	x15,x20,0x10
   405fc:	00e7e7b3          	or	x15,x15,x14
   40600:	02c12083          	lw	x1,44(x2)
   40604:	02812403          	lw	x8,40(x2)
   40608:	02412483          	lw	x9,36(x2)
   4060c:	01c12983          	lw	x19,28(x2)
   40610:	01812a03          	lw	x20,24(x2)
   40614:	01412a83          	lw	x21,20(x2)
   40618:	01012b03          	lw	x22,16(x2)
   4061c:	00c12b83          	lw	x23,12(x2)
   40620:	00812c03          	lw	x24,8(x2)
   40624:	00412c83          	lw	x25,4(x2)
   40628:	00012d03          	lw	x26,0(x2)
   4062c:	00090593          	addi	x11,x18,0
   40630:	00078513          	addi	x10,x15,0
   40634:	02012903          	lw	x18,32(x2)
   40638:	03010113          	addi	x2,x2,48
   4063c:	00008067          	jalr	x0,0(x1)
   40640:	010006b7          	lui	x13,0x1000
   40644:	01800713          	addi	x14,x0,24
   40648:	ecd676e3          	bgeu	x12,x13,40514 <__udivdi3+0x198>
   4064c:	01000713          	addi	x14,x0,16
   40650:	ec5ff06f          	jal	x0,40514 <__udivdi3+0x198>
   40654:	00e619b3          	sll	x19,x12,x14
   40658:	00f5d933          	srl	x18,x11,x15
   4065c:	0109db93          	srli	x23,x19,0x10
   40660:	00e595b3          	sll	x11,x11,x14
   40664:	00fa57b3          	srl	x15,x20,x15
   40668:	00b7eab3          	or	x21,x15,x11
   4066c:	00ea14b3          	sll	x9,x20,x14
   40670:	000b8593          	addi	x11,x23,0
   40674:	00090513          	addi	x10,x18,0
   40678:	01099a13          	slli	x20,x19,0x10
   4067c:	335000ef          	jal	x1,411b0 <__hidden___udivsi3>
   40680:	010a5a13          	srli	x20,x20,0x10
   40684:	00050593          	addi	x11,x10,0
   40688:	00050b13          	addi	x22,x10,0
   4068c:	000a0513          	addi	x10,x20,0
   40690:	2f5000ef          	jal	x1,41184 <__mulsi3>
   40694:	00050413          	addi	x8,x10,0
   40698:	000b8593          	addi	x11,x23,0
   4069c:	00090513          	addi	x10,x18,0
   406a0:	359000ef          	jal	x1,411f8 <__umodsi3>
   406a4:	01051513          	slli	x10,x10,0x10
   406a8:	010ad713          	srli	x14,x21,0x10
   406ac:	00a76733          	or	x14,x14,x10
   406b0:	000b0913          	addi	x18,x22,0
   406b4:	00877e63          	bgeu	x14,x8,406d0 <__udivdi3+0x354>
   406b8:	00e98733          	add	x14,x19,x14
   406bc:	fffb0913          	addi	x18,x22,-1
   406c0:	01376863          	bltu	x14,x19,406d0 <__udivdi3+0x354>
   406c4:	00877663          	bgeu	x14,x8,406d0 <__udivdi3+0x354>
   406c8:	ffeb0913          	addi	x18,x22,-2
   406cc:	01370733          	add	x14,x14,x19
   406d0:	40870433          	sub	x8,x14,x8
   406d4:	000b8593          	addi	x11,x23,0
   406d8:	00040513          	addi	x10,x8,0
   406dc:	2d5000ef          	jal	x1,411b0 <__hidden___udivsi3>
   406e0:	00050593          	addi	x11,x10,0
   406e4:	00050b13          	addi	x22,x10,0
   406e8:	000a0513          	addi	x10,x20,0
   406ec:	299000ef          	jal	x1,41184 <__mulsi3>
   406f0:	00050a13          	addi	x20,x10,0
   406f4:	000b8593          	addi	x11,x23,0
   406f8:	00040513          	addi	x10,x8,0
   406fc:	2fd000ef          	jal	x1,411f8 <__umodsi3>
   40700:	010a9793          	slli	x15,x21,0x10
   40704:	01051513          	slli	x10,x10,0x10
   40708:	0107d793          	srli	x15,x15,0x10
   4070c:	00a7e7b3          	or	x15,x15,x10
   40710:	000b0713          	addi	x14,x22,0
   40714:	0147fe63          	bgeu	x15,x20,40730 <__udivdi3+0x3b4>
   40718:	00f987b3          	add	x15,x19,x15
   4071c:	fffb0713          	addi	x14,x22,-1
   40720:	0137e863          	bltu	x15,x19,40730 <__udivdi3+0x3b4>
   40724:	0147f663          	bgeu	x15,x20,40730 <__udivdi3+0x3b4>
   40728:	ffeb0713          	addi	x14,x22,-2
   4072c:	013787b3          	add	x15,x15,x19
   40730:	01091913          	slli	x18,x18,0x10
   40734:	41478a33          	sub	x20,x15,x20
   40738:	00e96933          	or	x18,x18,x14
   4073c:	dfdff06f          	jal	x0,40538 <__udivdi3+0x1bc>
   40740:	1ed5ec63          	bltu	x11,x13,40938 <__udivdi3+0x5bc>
   40744:	000107b7          	lui	x15,0x10
   40748:	04f6f463          	bgeu	x13,x15,40790 <__udivdi3+0x414>
   4074c:	1006b713          	sltiu	x14,x13,256
   40750:	00173713          	sltiu	x14,x14,1
   40754:	00371713          	slli	x14,x14,0x3
   40758:	000437b7          	lui	x15,0x43
   4075c:	00e6d533          	srl	x10,x13,x14
   40760:	41878793          	addi	x15,x15,1048 # 43418 <__clz_tab>
   40764:	00a787b3          	add	x15,x15,x10
   40768:	0007c803          	lbu	x16,0(x15)
   4076c:	02000793          	addi	x15,x0,32
   40770:	00e80833          	add	x16,x16,x14
   40774:	41078933          	sub	x18,x15,x16
   40778:	03079663          	bne	x15,x16,407a4 <__udivdi3+0x428>
   4077c:	00100793          	addi	x15,x0,1
   40780:	e8b6e0e3          	bltu	x13,x11,40600 <__udivdi3+0x284>
   40784:	00ca37b3          	sltu	x15,x20,x12
   40788:	0017b793          	sltiu	x15,x15,1
   4078c:	e75ff06f          	jal	x0,40600 <__udivdi3+0x284>
   40790:	010007b7          	lui	x15,0x1000
   40794:	01800713          	addi	x14,x0,24
   40798:	fcf6f0e3          	bgeu	x13,x15,40758 <__udivdi3+0x3dc>
   4079c:	01000713          	addi	x14,x0,16
   407a0:	fb9ff06f          	jal	x0,40758 <__udivdi3+0x3dc>
   407a4:	012696b3          	sll	x13,x13,x18
   407a8:	01065ab3          	srl	x21,x12,x16
   407ac:	00daeab3          	or	x21,x21,x13
   407b0:	0105d9b3          	srl	x19,x11,x16
   407b4:	010adc13          	srli	x24,x21,0x10
   407b8:	010a5833          	srl	x16,x20,x16
   407bc:	012595b3          	sll	x11,x11,x18
   407c0:	00b864b3          	or	x9,x16,x11
   407c4:	010a9b93          	slli	x23,x21,0x10
   407c8:	000c0593          	addi	x11,x24,0
   407cc:	00098513          	addi	x10,x19,0
   407d0:	01261433          	sll	x8,x12,x18
   407d4:	010bdb93          	srli	x23,x23,0x10
   407d8:	1d9000ef          	jal	x1,411b0 <__hidden___udivsi3>
   407dc:	00050593          	addi	x11,x10,0
   407e0:	00050d13          	addi	x26,x10,0
   407e4:	000b8513          	addi	x10,x23,0
   407e8:	19d000ef          	jal	x1,41184 <__mulsi3>
   407ec:	00050c93          	addi	x25,x10,0
   407f0:	000c0593          	addi	x11,x24,0
   407f4:	00098513          	addi	x10,x19,0
   407f8:	201000ef          	jal	x1,411f8 <__umodsi3>
   407fc:	01051513          	slli	x10,x10,0x10
   40800:	0104d693          	srli	x13,x9,0x10
   40804:	00a6e6b3          	or	x13,x13,x10
   40808:	000d0b13          	addi	x22,x26,0
   4080c:	0196fe63          	bgeu	x13,x25,40828 <__udivdi3+0x4ac>
   40810:	00da86b3          	add	x13,x21,x13
   40814:	fffd0b13          	addi	x22,x26,-1
   40818:	0156e863          	bltu	x13,x21,40828 <__udivdi3+0x4ac>
   4081c:	0196f663          	bgeu	x13,x25,40828 <__udivdi3+0x4ac>
   40820:	ffed0b13          	addi	x22,x26,-2
   40824:	015686b3          	add	x13,x13,x21
   40828:	419689b3          	sub	x19,x13,x25
   4082c:	000c0593          	addi	x11,x24,0
   40830:	00098513          	addi	x10,x19,0
   40834:	17d000ef          	jal	x1,411b0 <__hidden___udivsi3>
   40838:	00050593          	addi	x11,x10,0
   4083c:	00050c93          	addi	x25,x10,0
   40840:	000b8513          	addi	x10,x23,0
   40844:	141000ef          	jal	x1,41184 <__mulsi3>
   40848:	00050b93          	addi	x23,x10,0
   4084c:	000c0593          	addi	x11,x24,0
   40850:	00098513          	addi	x10,x19,0
   40854:	1a5000ef          	jal	x1,411f8 <__umodsi3>
   40858:	01049713          	slli	x14,x9,0x10
   4085c:	01051513          	slli	x10,x10,0x10
   40860:	01075713          	srli	x14,x14,0x10
   40864:	00a76733          	or	x14,x14,x10
   40868:	000c8693          	addi	x13,x25,0
   4086c:	01777e63          	bgeu	x14,x23,40888 <__udivdi3+0x50c>
   40870:	00ea8733          	add	x14,x21,x14
   40874:	fffc8693          	addi	x13,x25,-1
   40878:	01576863          	bltu	x14,x21,40888 <__udivdi3+0x50c>
   4087c:	01777663          	bgeu	x14,x23,40888 <__udivdi3+0x50c>
   40880:	ffec8693          	addi	x13,x25,-2
   40884:	01570733          	add	x14,x14,x21
   40888:	010b1793          	slli	x15,x22,0x10
   4088c:	01069813          	slli	x16,x13,0x10
   40890:	01041313          	slli	x6,x8,0x10
   40894:	00d7e7b3          	or	x15,x15,x13
   40898:	01085813          	srli	x16,x16,0x10
   4089c:	01035313          	srli	x6,x6,0x10
   408a0:	41770733          	sub	x14,x14,x23
   408a4:	0107de13          	srli	x28,x15,0x10
   408a8:	01045413          	srli	x8,x8,0x10
   408ac:	00080513          	addi	x10,x16,0
   408b0:	00030593          	addi	x11,x6,0
   408b4:	0d1000ef          	jal	x1,41184 <__mulsi3>
   408b8:	00050893          	addi	x17,x10,0
   408bc:	00040593          	addi	x11,x8,0
   408c0:	00080513          	addi	x10,x16,0
   408c4:	0c1000ef          	jal	x1,41184 <__mulsi3>
   408c8:	00050813          	addi	x16,x10,0
   408cc:	00030593          	addi	x11,x6,0
   408d0:	000e0513          	addi	x10,x28,0
   408d4:	0b1000ef          	jal	x1,41184 <__mulsi3>
   408d8:	00050313          	addi	x6,x10,0
   408dc:	00040593          	addi	x11,x8,0
   408e0:	000e0513          	addi	x10,x28,0
   408e4:	0a1000ef          	jal	x1,41184 <__mulsi3>
   408e8:	0108d693          	srli	x13,x17,0x10
   408ec:	00680833          	add	x16,x16,x6
   408f0:	010686b3          	add	x13,x13,x16
   408f4:	00050613          	addi	x12,x10,0
   408f8:	0066f663          	bgeu	x13,x6,40904 <__udivdi3+0x588>
   408fc:	000105b7          	lui	x11,0x10
   40900:	00b50633          	add	x12,x10,x11
   40904:	0106d593          	srli	x11,x13,0x10
   40908:	00c58633          	add	x12,x11,x12
   4090c:	02c76263          	bltu	x14,x12,40930 <__udivdi3+0x5b4>
   40910:	bcc716e3          	bne	x14,x12,404dc <__udivdi3+0x160>
   40914:	01089893          	slli	x17,x17,0x10
   40918:	01069693          	slli	x13,x13,0x10
   4091c:	0108d893          	srli	x17,x17,0x10
   40920:	012a1733          	sll	x14,x20,x18
   40924:	011686b3          	add	x13,x13,x17
   40928:	00000913          	addi	x18,x0,0
   4092c:	ccd77ae3          	bgeu	x14,x13,40600 <__udivdi3+0x284>
   40930:	fff78793          	addi	x15,x15,-1 # ffffff <__stack_top+0xfaffff>
   40934:	ba9ff06f          	jal	x0,404dc <__udivdi3+0x160>
   40938:	00000913          	addi	x18,x0,0
   4093c:	00000793          	addi	x15,x0,0
   40940:	cc1ff06f          	jal	x0,40600 <__udivdi3+0x284>

00040944 <__divsf3>:
   40944:	fd010113          	addi	x2,x2,-48
   40948:	02912223          	sw	x9,36(x2)
   4094c:	01755493          	srli	x9,x10,0x17
   40950:	03212023          	sw	x18,32(x2)
   40954:	01512a23          	sw	x21,20(x2)
   40958:	01612823          	sw	x22,16(x2)
   4095c:	00951a93          	slli	x21,x10,0x9
   40960:	02112623          	sw	x1,44(x2)
   40964:	02812423          	sw	x8,40(x2)
   40968:	01312e23          	sw	x19,28(x2)
   4096c:	01412c23          	sw	x20,24(x2)
   40970:	01712623          	sw	x23,12(x2)
   40974:	01812423          	sw	x24,8(x2)
   40978:	0ff4f493          	andi	x9,x9,255
   4097c:	00058b13          	addi	x22,x11,0 # 10000 <_start-0x30000>
   40980:	009ada93          	srli	x21,x21,0x9
   40984:	01f55913          	srli	x18,x10,0x1f
   40988:	08048463          	beq	x9,x0,40a10 <__divsf3+0xcc>
   4098c:	0ff00793          	addi	x15,x0,255
   40990:	0af48063          	beq	x9,x15,40a30 <__divsf3+0xec>
   40994:	003a9a93          	slli	x21,x21,0x3
   40998:	040007b7          	lui	x15,0x4000
   4099c:	00faeab3          	or	x21,x21,x15
   409a0:	f8148493          	addi	x9,x9,-127
   409a4:	00000b93          	addi	x23,x0,0
   409a8:	017b5793          	srli	x15,x22,0x17
   409ac:	009b1413          	slli	x8,x22,0x9
   409b0:	0ff7f793          	andi	x15,x15,255
   409b4:	00945413          	srli	x8,x8,0x9
   409b8:	01fb5b13          	srli	x22,x22,0x1f
   409bc:	08078863          	beq	x15,x0,40a4c <__divsf3+0x108>
   409c0:	0ff00713          	addi	x14,x0,255
   409c4:	0ae78463          	beq	x15,x14,40a6c <__divsf3+0x128>
   409c8:	00341413          	slli	x8,x8,0x3
   409cc:	04000737          	lui	x14,0x4000
   409d0:	00e46433          	or	x8,x8,x14
   409d4:	f8178793          	addi	x15,x15,-127 # 3ffff81 <__stack_top+0x3faff81>
   409d8:	00000713          	addi	x14,x0,0
   409dc:	40f48a33          	sub	x20,x9,x15
   409e0:	002b9793          	slli	x15,x23,0x2
   409e4:	00e7e7b3          	or	x15,x15,x14
   409e8:	fff78793          	addi	x15,x15,-1
   409ec:	00e00693          	addi	x13,x0,14
   409f0:	016949b3          	xor	x19,x18,x22
   409f4:	08f6ea63          	bltu	x13,x15,40a88 <__divsf3+0x144>
   409f8:	000436b7          	lui	x13,0x43
   409fc:	00279793          	slli	x15,x15,0x2
   40a00:	3dc68693          	addi	x13,x13,988 # 433dc <_free_r+0x2f0>
   40a04:	00d787b3          	add	x15,x15,x13
   40a08:	0007a783          	lw	x15,0(x15)
   40a0c:	00078067          	jalr	x0,0(x15)
   40a10:	020a8863          	beq	x21,x0,40a40 <__divsf3+0xfc>
   40a14:	000a8513          	addi	x10,x21,0
   40a18:	045000ef          	jal	x1,4125c <__clzsi2>
   40a1c:	ffb50793          	addi	x15,x10,-5
   40a20:	f8a00493          	addi	x9,x0,-118
   40a24:	00fa9ab3          	sll	x21,x21,x15
   40a28:	40a484b3          	sub	x9,x9,x10
   40a2c:	f79ff06f          	jal	x0,409a4 <__divsf3+0x60>
   40a30:	00200b93          	addi	x23,x0,2
   40a34:	f60a8ae3          	beq	x21,x0,409a8 <__divsf3+0x64>
   40a38:	00300b93          	addi	x23,x0,3
   40a3c:	f6dff06f          	jal	x0,409a8 <__divsf3+0x64>
   40a40:	00000493          	addi	x9,x0,0
   40a44:	00100b93          	addi	x23,x0,1
   40a48:	f61ff06f          	jal	x0,409a8 <__divsf3+0x64>
   40a4c:	02040863          	beq	x8,x0,40a7c <__divsf3+0x138>
   40a50:	00040513          	addi	x10,x8,0
   40a54:	009000ef          	jal	x1,4125c <__clzsi2>
   40a58:	ffb50793          	addi	x15,x10,-5
   40a5c:	00f41433          	sll	x8,x8,x15
   40a60:	f8a00793          	addi	x15,x0,-118
   40a64:	40a787b3          	sub	x15,x15,x10
   40a68:	f71ff06f          	jal	x0,409d8 <__divsf3+0x94>
   40a6c:	00200713          	addi	x14,x0,2
   40a70:	f60406e3          	beq	x8,x0,409dc <__divsf3+0x98>
   40a74:	00300713          	addi	x14,x0,3
   40a78:	f65ff06f          	jal	x0,409dc <__divsf3+0x98>
   40a7c:	00000793          	addi	x15,x0,0
   40a80:	00100713          	addi	x14,x0,1
   40a84:	f59ff06f          	jal	x0,409dc <__divsf3+0x98>
   40a88:	00541c13          	slli	x24,x8,0x5
   40a8c:	168af663          	bgeu	x21,x8,40bf8 <__divsf3+0x2b4>
   40a90:	fffa0a13          	addi	x20,x20,-1
   40a94:	00000413          	addi	x8,x0,0
   40a98:	010c5b13          	srli	x22,x24,0x10
   40a9c:	000b0593          	addi	x11,x22,0
   40aa0:	010c1913          	slli	x18,x24,0x10
   40aa4:	000a8513          	addi	x10,x21,0
   40aa8:	708000ef          	jal	x1,411b0 <__hidden___udivsi3>
   40aac:	01095913          	srli	x18,x18,0x10
   40ab0:	00050593          	addi	x11,x10,0
   40ab4:	00050b93          	addi	x23,x10,0
   40ab8:	00090513          	addi	x10,x18,0
   40abc:	6c8000ef          	jal	x1,41184 <__mulsi3>
   40ac0:	00050493          	addi	x9,x10,0
   40ac4:	000b0593          	addi	x11,x22,0
   40ac8:	000a8513          	addi	x10,x21,0
   40acc:	72c000ef          	jal	x1,411f8 <__umodsi3>
   40ad0:	01045793          	srli	x15,x8,0x10
   40ad4:	01051513          	slli	x10,x10,0x10
   40ad8:	00a7e7b3          	or	x15,x15,x10
   40adc:	000b8413          	addi	x8,x23,0
   40ae0:	0097fe63          	bgeu	x15,x9,40afc <__divsf3+0x1b8>
   40ae4:	00fc07b3          	add	x15,x24,x15
   40ae8:	fffb8413          	addi	x8,x23,-1
   40aec:	0187e863          	bltu	x15,x24,40afc <__divsf3+0x1b8>
   40af0:	0097f663          	bgeu	x15,x9,40afc <__divsf3+0x1b8>
   40af4:	ffeb8413          	addi	x8,x23,-2
   40af8:	018787b3          	add	x15,x15,x24
   40afc:	409784b3          	sub	x9,x15,x9
   40b00:	000b0593          	addi	x11,x22,0
   40b04:	00048513          	addi	x10,x9,0
   40b08:	6a8000ef          	jal	x1,411b0 <__hidden___udivsi3>
   40b0c:	00050593          	addi	x11,x10,0
   40b10:	00050a93          	addi	x21,x10,0
   40b14:	00090513          	addi	x10,x18,0
   40b18:	66c000ef          	jal	x1,41184 <__mulsi3>
   40b1c:	00050913          	addi	x18,x10,0
   40b20:	000b0593          	addi	x11,x22,0
   40b24:	00048513          	addi	x10,x9,0
   40b28:	6d0000ef          	jal	x1,411f8 <__umodsi3>
   40b2c:	01051793          	slli	x15,x10,0x10
   40b30:	000a8713          	addi	x14,x21,0
   40b34:	0327f263          	bgeu	x15,x18,40b58 <__divsf3+0x214>
   40b38:	018786b3          	add	x13,x15,x24
   40b3c:	00f6b633          	sltu	x12,x13,x15
   40b40:	fffa8713          	addi	x14,x21,-1
   40b44:	00068793          	addi	x15,x13,0
   40b48:	00061863          	bne	x12,x0,40b58 <__divsf3+0x214>
   40b4c:	0126f663          	bgeu	x13,x18,40b58 <__divsf3+0x214>
   40b50:	ffea8713          	addi	x14,x21,-2
   40b54:	018687b3          	add	x15,x13,x24
   40b58:	01041413          	slli	x8,x8,0x10
   40b5c:	412787b3          	sub	x15,x15,x18
   40b60:	00e46433          	or	x8,x8,x14
   40b64:	00f037b3          	sltu	x15,x0,x15
   40b68:	00f46433          	or	x8,x8,x15
   40b6c:	07fa0713          	addi	x14,x20,127
   40b70:	0ce05663          	bge	x0,x14,40c3c <__divsf3+0x2f8>
   40b74:	00747793          	andi	x15,x8,7
   40b78:	00078a63          	beq	x15,x0,40b8c <__divsf3+0x248>
   40b7c:	00f47793          	andi	x15,x8,15
   40b80:	00400693          	addi	x13,x0,4
   40b84:	00d78463          	beq	x15,x13,40b8c <__divsf3+0x248>
   40b88:	00d40433          	add	x8,x8,x13
   40b8c:	00441793          	slli	x15,x8,0x4
   40b90:	0007da63          	bge	x15,x0,40ba4 <__divsf3+0x260>
   40b94:	f80007b7          	lui	x15,0xf8000
   40b98:	fff78793          	addi	x15,x15,-1 # f7ffffff <__stack_top+0xf7faffff>
   40b9c:	00f47433          	and	x8,x8,x15
   40ba0:	080a0713          	addi	x14,x20,128
   40ba4:	0fe00793          	addi	x15,x0,254
   40ba8:	10e7c263          	blt	x15,x14,40cac <__divsf3+0x368>
   40bac:	00345793          	srli	x15,x8,0x3
   40bb0:	02c12083          	lw	x1,44(x2)
   40bb4:	02812403          	lw	x8,40(x2)
   40bb8:	00979793          	slli	x15,x15,0x9
   40bbc:	01771713          	slli	x14,x14,0x17
   40bc0:	0097d793          	srli	x15,x15,0x9
   40bc4:	01f99513          	slli	x10,x19,0x1f
   40bc8:	00f76733          	or	x14,x14,x15
   40bcc:	02412483          	lw	x9,36(x2)
   40bd0:	02012903          	lw	x18,32(x2)
   40bd4:	01c12983          	lw	x19,28(x2)
   40bd8:	01812a03          	lw	x20,24(x2)
   40bdc:	01412a83          	lw	x21,20(x2)
   40be0:	01012b03          	lw	x22,16(x2)
   40be4:	00c12b83          	lw	x23,12(x2)
   40be8:	00812c03          	lw	x24,8(x2)
   40bec:	00a76533          	or	x10,x14,x10
   40bf0:	03010113          	addi	x2,x2,48
   40bf4:	00008067          	jalr	x0,0(x1)
   40bf8:	01fa9413          	slli	x8,x21,0x1f
   40bfc:	001ada93          	srli	x21,x21,0x1
   40c00:	e99ff06f          	jal	x0,40a98 <__divsf3+0x154>
   40c04:	000b0993          	addi	x19,x22,0
   40c08:	00200793          	addi	x15,x0,2
   40c0c:	0af70063          	beq	x14,x15,40cac <__divsf3+0x368>
   40c10:	00300793          	addi	x15,x0,3
   40c14:	08f70463          	beq	x14,x15,40c9c <__divsf3+0x358>
   40c18:	00100793          	addi	x15,x0,1
   40c1c:	f4f718e3          	bne	x14,x15,40b6c <__divsf3+0x228>
   40c20:	00000793          	addi	x15,x0,0
   40c24:	00000713          	addi	x14,x0,0
   40c28:	f89ff06f          	jal	x0,40bb0 <__divsf3+0x26c>
   40c2c:	00090993          	addi	x19,x18,0
   40c30:	000a8413          	addi	x8,x21,0
   40c34:	000b8713          	addi	x14,x23,0
   40c38:	fd1ff06f          	jal	x0,40c08 <__divsf3+0x2c4>
   40c3c:	00100693          	addi	x13,x0,1
   40c40:	00070c63          	beq	x14,x0,40c58 <__divsf3+0x314>
   40c44:	40e686b3          	sub	x13,x13,x14
   40c48:	01b00613          	addi	x12,x0,27
   40c4c:	00000793          	addi	x15,x0,0
   40c50:	00000713          	addi	x14,x0,0
   40c54:	f4d64ee3          	blt	x12,x13,40bb0 <__divsf3+0x26c>
   40c58:	09ea0493          	addi	x9,x20,158
   40c5c:	00d456b3          	srl	x13,x8,x13
   40c60:	00941433          	sll	x8,x8,x9
   40c64:	00803433          	sltu	x8,x0,x8
   40c68:	0086e7b3          	or	x15,x13,x8
   40c6c:	0077f713          	andi	x14,x15,7
   40c70:	00070a63          	beq	x14,x0,40c84 <__divsf3+0x340>
   40c74:	00f7f713          	andi	x14,x15,15
   40c78:	00400693          	addi	x13,x0,4
   40c7c:	00d70463          	beq	x14,x13,40c84 <__divsf3+0x340>
   40c80:	00d787b3          	add	x15,x15,x13
   40c84:	00579713          	slli	x14,x15,0x5
   40c88:	0037d793          	srli	x15,x15,0x3
   40c8c:	f8075ce3          	bge	x14,x0,40c24 <__divsf3+0x2e0>
   40c90:	00000793          	addi	x15,x0,0
   40c94:	00100713          	addi	x14,x0,1
   40c98:	f19ff06f          	jal	x0,40bb0 <__divsf3+0x26c>
   40c9c:	004007b7          	lui	x15,0x400
   40ca0:	0ff00713          	addi	x14,x0,255
   40ca4:	00000993          	addi	x19,x0,0
   40ca8:	f09ff06f          	jal	x0,40bb0 <__divsf3+0x26c>
   40cac:	00000793          	addi	x15,x0,0
   40cb0:	0ff00713          	addi	x14,x0,255
   40cb4:	efdff06f          	jal	x0,40bb0 <__divsf3+0x26c>

00040cb8 <__mulsf3>:
   40cb8:	fe010113          	addi	x2,x2,-32
   40cbc:	01212823          	sw	x18,16(x2)
   40cc0:	01755913          	srli	x18,x10,0x17
   40cc4:	00912a23          	sw	x9,20(x2)
   40cc8:	01312623          	sw	x19,12(x2)
   40ccc:	01512223          	sw	x21,4(x2)
   40cd0:	00951493          	slli	x9,x10,0x9
   40cd4:	00112e23          	sw	x1,28(x2)
   40cd8:	00812c23          	sw	x8,24(x2)
   40cdc:	01412423          	sw	x20,8(x2)
   40ce0:	0ff97913          	andi	x18,x18,255
   40ce4:	00058a93          	addi	x21,x11,0
   40ce8:	0094d493          	srli	x9,x9,0x9
   40cec:	01f55993          	srli	x19,x10,0x1f
   40cf0:	1a090c63          	beq	x18,x0,40ea8 <__mulsf3+0x1f0>
   40cf4:	0ff00793          	addi	x15,x0,255
   40cf8:	1cf90863          	beq	x18,x15,40ec8 <__mulsf3+0x210>
   40cfc:	00349493          	slli	x9,x9,0x3
   40d00:	040007b7          	lui	x15,0x4000
   40d04:	00f4e4b3          	or	x9,x9,x15
   40d08:	f8190913          	addi	x18,x18,-127
   40d0c:	00000a13          	addi	x20,x0,0
   40d10:	017ad793          	srli	x15,x21,0x17
   40d14:	009a9413          	slli	x8,x21,0x9
   40d18:	0ff7f793          	andi	x15,x15,255
   40d1c:	00945413          	srli	x8,x8,0x9
   40d20:	01fada93          	srli	x21,x21,0x1f
   40d24:	1c078063          	beq	x15,x0,40ee4 <__mulsf3+0x22c>
   40d28:	0ff00713          	addi	x14,x0,255
   40d2c:	1ce78c63          	beq	x15,x14,40f04 <__mulsf3+0x24c>
   40d30:	00341413          	slli	x8,x8,0x3
   40d34:	04000737          	lui	x14,0x4000
   40d38:	00e46433          	or	x8,x8,x14
   40d3c:	f8178793          	addi	x15,x15,-127 # 3ffff81 <__stack_top+0x3faff81>
   40d40:	00000713          	addi	x14,x0,0
   40d44:	00f90933          	add	x18,x18,x15
   40d48:	002a1793          	slli	x15,x20,0x2
   40d4c:	00e7e7b3          	or	x15,x15,x14
   40d50:	00a00693          	addi	x13,x0,10
   40d54:	00190813          	addi	x16,x18,1
   40d58:	20f6c663          	blt	x13,x15,40f64 <__mulsf3+0x2ac>
   40d5c:	00200613          	addi	x12,x0,2
   40d60:	0159c9b3          	xor	x19,x19,x21
   40d64:	00100693          	addi	x13,x0,1
   40d68:	1af64c63          	blt	x12,x15,40f20 <__mulsf3+0x268>
   40d6c:	fff78793          	addi	x15,x15,-1
   40d70:	1cf6f863          	bgeu	x13,x15,40f40 <__mulsf3+0x288>
   40d74:	0104de13          	srli	x28,x9,0x10
   40d78:	01045793          	srli	x15,x8,0x10
   40d7c:	01049493          	slli	x9,x9,0x10
   40d80:	01041413          	slli	x8,x8,0x10
   40d84:	0104d493          	srli	x9,x9,0x10
   40d88:	01045413          	srli	x8,x8,0x10
   40d8c:	00048513          	addi	x10,x9,0
   40d90:	00040593          	addi	x11,x8,0
   40d94:	3f0000ef          	jal	x1,41184 <__mulsi3>
   40d98:	00050893          	addi	x17,x10,0
   40d9c:	00078593          	addi	x11,x15,0
   40da0:	00048513          	addi	x10,x9,0
   40da4:	3e0000ef          	jal	x1,41184 <__mulsi3>
   40da8:	00050713          	addi	x14,x10,0
   40dac:	00040593          	addi	x11,x8,0
   40db0:	000e0513          	addi	x10,x28,0
   40db4:	3d0000ef          	jal	x1,41184 <__mulsi3>
   40db8:	00050313          	addi	x6,x10,0
   40dbc:	00078593          	addi	x11,x15,0
   40dc0:	000e0513          	addi	x10,x28,0
   40dc4:	3c0000ef          	jal	x1,41184 <__mulsi3>
   40dc8:	0108d793          	srli	x15,x17,0x10
   40dcc:	00670733          	add	x14,x14,x6
   40dd0:	00e787b3          	add	x15,x15,x14
   40dd4:	00050693          	addi	x13,x10,0
   40dd8:	0067f663          	bgeu	x15,x6,40de4 <__mulsf3+0x12c>
   40ddc:	00010737          	lui	x14,0x10
   40de0:	00e506b3          	add	x13,x10,x14
   40de4:	01089893          	slli	x17,x17,0x10
   40de8:	01079713          	slli	x14,x15,0x10
   40dec:	0108d893          	srli	x17,x17,0x10
   40df0:	01170733          	add	x14,x14,x17
   40df4:	0107d793          	srli	x15,x15,0x10
   40df8:	00671413          	slli	x8,x14,0x6
   40dfc:	00d787b3          	add	x15,x15,x13
   40e00:	01a75713          	srli	x14,x14,0x1a
   40e04:	00679793          	slli	x15,x15,0x6
   40e08:	00803433          	sltu	x8,x0,x8
   40e0c:	00e46433          	or	x8,x8,x14
   40e10:	00479713          	slli	x14,x15,0x4
   40e14:	0087e433          	or	x8,x15,x8
   40e18:	16075463          	bge	x14,x0,40f80 <__mulsf3+0x2c8>
   40e1c:	00145793          	srli	x15,x8,0x1
   40e20:	00147413          	andi	x8,x8,1
   40e24:	0087e433          	or	x8,x15,x8
   40e28:	07f80513          	addi	x10,x16,127
   40e2c:	14a05e63          	bge	x0,x10,40f88 <__mulsf3+0x2d0>
   40e30:	00747793          	andi	x15,x8,7
   40e34:	00078a63          	beq	x15,x0,40e48 <__mulsf3+0x190>
   40e38:	00f47793          	andi	x15,x8,15
   40e3c:	00400713          	addi	x14,x0,4
   40e40:	00e78463          	beq	x15,x14,40e48 <__mulsf3+0x190>
   40e44:	00e40433          	add	x8,x8,x14
   40e48:	00441793          	slli	x15,x8,0x4
   40e4c:	0007da63          	bge	x15,x0,40e60 <__mulsf3+0x1a8>
   40e50:	f80007b7          	lui	x15,0xf8000
   40e54:	fff78793          	addi	x15,x15,-1 # f7ffffff <__stack_top+0xf7faffff>
   40e58:	00f47433          	and	x8,x8,x15
   40e5c:	08080513          	addi	x10,x16,128
   40e60:	0fe00793          	addi	x15,x0,254
   40e64:	18a7ca63          	blt	x15,x10,40ff8 <__mulsf3+0x340>
   40e68:	00345793          	srli	x15,x8,0x3
   40e6c:	01c12083          	lw	x1,28(x2)
   40e70:	01812403          	lw	x8,24(x2)
   40e74:	00979793          	slli	x15,x15,0x9
   40e78:	01751513          	slli	x10,x10,0x17
   40e7c:	0097d793          	srli	x15,x15,0x9
   40e80:	01f99993          	slli	x19,x19,0x1f
   40e84:	00f56533          	or	x10,x10,x15
   40e88:	01412483          	lw	x9,20(x2)
   40e8c:	01012903          	lw	x18,16(x2)
   40e90:	00812a03          	lw	x20,8(x2)
   40e94:	00412a83          	lw	x21,4(x2)
   40e98:	01356533          	or	x10,x10,x19
   40e9c:	00c12983          	lw	x19,12(x2)
   40ea0:	02010113          	addi	x2,x2,32
   40ea4:	00008067          	jalr	x0,0(x1)
   40ea8:	02048863          	beq	x9,x0,40ed8 <__mulsf3+0x220>
   40eac:	00048513          	addi	x10,x9,0
   40eb0:	3ac000ef          	jal	x1,4125c <__clzsi2>
   40eb4:	ffb50793          	addi	x15,x10,-5
   40eb8:	f8a00913          	addi	x18,x0,-118
   40ebc:	00f494b3          	sll	x9,x9,x15
   40ec0:	40a90933          	sub	x18,x18,x10
   40ec4:	e49ff06f          	jal	x0,40d0c <__mulsf3+0x54>
   40ec8:	00200a13          	addi	x20,x0,2
   40ecc:	e40482e3          	beq	x9,x0,40d10 <__mulsf3+0x58>
   40ed0:	00300a13          	addi	x20,x0,3
   40ed4:	e3dff06f          	jal	x0,40d10 <__mulsf3+0x58>
   40ed8:	00000913          	addi	x18,x0,0
   40edc:	00100a13          	addi	x20,x0,1
   40ee0:	e31ff06f          	jal	x0,40d10 <__mulsf3+0x58>
   40ee4:	02040863          	beq	x8,x0,40f14 <__mulsf3+0x25c>
   40ee8:	00040513          	addi	x10,x8,0
   40eec:	370000ef          	jal	x1,4125c <__clzsi2>
   40ef0:	ffb50793          	addi	x15,x10,-5
   40ef4:	00f41433          	sll	x8,x8,x15
   40ef8:	f8a00793          	addi	x15,x0,-118
   40efc:	40a787b3          	sub	x15,x15,x10
   40f00:	e41ff06f          	jal	x0,40d40 <__mulsf3+0x88>
   40f04:	00200713          	addi	x14,x0,2
   40f08:	e2040ee3          	beq	x8,x0,40d44 <__mulsf3+0x8c>
   40f0c:	00300713          	addi	x14,x0,3
   40f10:	e35ff06f          	jal	x0,40d44 <__mulsf3+0x8c>
   40f14:	00000793          	addi	x15,x0,0
   40f18:	00100713          	addi	x14,x0,1
   40f1c:	e29ff06f          	jal	x0,40d44 <__mulsf3+0x8c>
   40f20:	00f697b3          	sll	x15,x13,x15
   40f24:	5307f693          	andi	x13,x15,1328
   40f28:	04069663          	bne	x13,x0,40f74 <__mulsf3+0x2bc>
   40f2c:	2407f693          	andi	x13,x15,576
   40f30:	0a069c63          	bne	x13,x0,40fe8 <__mulsf3+0x330>
   40f34:	0887f793          	andi	x15,x15,136
   40f38:	e2078ee3          	beq	x15,x0,40d74 <__mulsf3+0xbc>
   40f3c:	000a8993          	addi	x19,x21,0
   40f40:	00200793          	addi	x15,x0,2
   40f44:	0af70a63          	beq	x14,x15,40ff8 <__mulsf3+0x340>
   40f48:	00300793          	addi	x15,x0,3
   40f4c:	08f70e63          	beq	x14,x15,40fe8 <__mulsf3+0x330>
   40f50:	00100793          	addi	x15,x0,1
   40f54:	ecf71ae3          	bne	x14,x15,40e28 <__mulsf3+0x170>
   40f58:	00000793          	addi	x15,x0,0
   40f5c:	00000513          	addi	x10,x0,0
   40f60:	f0dff06f          	jal	x0,40e6c <__mulsf3+0x1b4>
   40f64:	00f00693          	addi	x13,x0,15
   40f68:	08d78063          	beq	x15,x13,40fe8 <__mulsf3+0x330>
   40f6c:	00b00693          	addi	x13,x0,11
   40f70:	fcd786e3          	beq	x15,x13,40f3c <__mulsf3+0x284>
   40f74:	00048413          	addi	x8,x9,0
   40f78:	000a0713          	addi	x14,x20,0
   40f7c:	fc5ff06f          	jal	x0,40f40 <__mulsf3+0x288>
   40f80:	00090813          	addi	x16,x18,0
   40f84:	ea5ff06f          	jal	x0,40e28 <__mulsf3+0x170>
   40f88:	00100713          	addi	x14,x0,1
   40f8c:	00050c63          	beq	x10,x0,40fa4 <__mulsf3+0x2ec>
   40f90:	40a70733          	sub	x14,x14,x10
   40f94:	01b00693          	addi	x13,x0,27
   40f98:	00000793          	addi	x15,x0,0
   40f9c:	00000513          	addi	x10,x0,0
   40fa0:	ece6c6e3          	blt	x13,x14,40e6c <__mulsf3+0x1b4>
   40fa4:	09e80813          	addi	x16,x16,158
   40fa8:	00e45733          	srl	x14,x8,x14
   40fac:	01041433          	sll	x8,x8,x16
   40fb0:	00803433          	sltu	x8,x0,x8
   40fb4:	008767b3          	or	x15,x14,x8
   40fb8:	0077f713          	andi	x14,x15,7
   40fbc:	00070a63          	beq	x14,x0,40fd0 <__mulsf3+0x318>
   40fc0:	00f7f713          	andi	x14,x15,15
   40fc4:	00400693          	addi	x13,x0,4
   40fc8:	00d70463          	beq	x14,x13,40fd0 <__mulsf3+0x318>
   40fcc:	00d787b3          	add	x15,x15,x13
   40fd0:	00579713          	slli	x14,x15,0x5
   40fd4:	0037d793          	srli	x15,x15,0x3
   40fd8:	f80752e3          	bge	x14,x0,40f5c <__mulsf3+0x2a4>
   40fdc:	00000793          	addi	x15,x0,0
   40fe0:	00100513          	addi	x10,x0,1
   40fe4:	e89ff06f          	jal	x0,40e6c <__mulsf3+0x1b4>
   40fe8:	004007b7          	lui	x15,0x400
   40fec:	0ff00513          	addi	x10,x0,255
   40ff0:	00000993          	addi	x19,x0,0
   40ff4:	e79ff06f          	jal	x0,40e6c <__mulsf3+0x1b4>
   40ff8:	00000793          	addi	x15,x0,0
   40ffc:	0ff00513          	addi	x10,x0,255
   41000:	e6dff06f          	jal	x0,40e6c <__mulsf3+0x1b4>

00041004 <__fixsfsi>:
   41004:	00800637          	lui	x12,0x800
   41008:	01755713          	srli	x14,x10,0x17
   4100c:	fff60793          	addi	x15,x12,-1 # 7fffff <__stack_top+0x7affff>
   41010:	0ff77713          	andi	x14,x14,255
   41014:	07e00593          	addi	x11,x0,126
   41018:	00a7f7b3          	and	x15,x15,x10
   4101c:	01f55693          	srli	x13,x10,0x1f
   41020:	04e5d663          	bge	x11,x14,4106c <__fixsfsi+0x68>
   41024:	09d00593          	addi	x11,x0,157
   41028:	00e5da63          	bge	x11,x14,4103c <__fixsfsi+0x38>
   4102c:	80000537          	lui	x10,0x80000
   41030:	fff50513          	addi	x10,x10,-1 # 7fffffff <__stack_top+0x7ffaffff>
   41034:	00a68533          	add	x10,x13,x10
   41038:	00008067          	jalr	x0,0(x1)
   4103c:	00c7e533          	or	x10,x15,x12
   41040:	09500793          	addi	x15,x0,149
   41044:	00e7dc63          	bge	x15,x14,4105c <__fixsfsi+0x58>
   41048:	f6a70713          	addi	x14,x14,-150 # ff6a <_start-0x30096>
   4104c:	00e51533          	sll	x10,x10,x14
   41050:	02068063          	beq	x13,x0,41070 <__fixsfsi+0x6c>
   41054:	40a00533          	sub	x10,x0,x10
   41058:	00008067          	jalr	x0,0(x1)
   4105c:	09600793          	addi	x15,x0,150
   41060:	40e787b3          	sub	x15,x15,x14
   41064:	00f55533          	srl	x10,x10,x15
   41068:	fe9ff06f          	jal	x0,41050 <__fixsfsi+0x4c>
   4106c:	00000513          	addi	x10,x0,0
   41070:	00008067          	jalr	x0,0(x1)

00041074 <__floatsisf>:
   41074:	ff010113          	addi	x2,x2,-16
   41078:	00112623          	sw	x1,12(x2)
   4107c:	00812423          	sw	x8,8(x2)
   41080:	00912223          	sw	x9,4(x2)
   41084:	00050793          	addi	x15,x10,0
   41088:	0e050463          	beq	x10,x0,41170 <__floatsisf+0xfc>
   4108c:	41f55713          	srai	x14,x10,0x1f
   41090:	00a74433          	xor	x8,x14,x10
   41094:	40e40433          	sub	x8,x8,x14
   41098:	01f55493          	srli	x9,x10,0x1f
   4109c:	00040513          	addi	x10,x8,0
   410a0:	1bc000ef          	jal	x1,4125c <__clzsi2>
   410a4:	09e00793          	addi	x15,x0,158
   410a8:	40a787b3          	sub	x15,x15,x10
   410ac:	09600713          	addi	x14,x0,150
   410b0:	04f74063          	blt	x14,x15,410f0 <__floatsisf+0x7c>
   410b4:	00800693          	addi	x13,x0,8
   410b8:	0cd50263          	beq	x10,x13,4117c <__floatsisf+0x108>
   410bc:	ff850513          	addi	x10,x10,-8
   410c0:	00a41433          	sll	x8,x8,x10
   410c4:	00941413          	slli	x8,x8,0x9
   410c8:	00945413          	srli	x8,x8,0x9
   410cc:	01779793          	slli	x15,x15,0x17
   410d0:	00c12083          	lw	x1,12(x2)
   410d4:	0087e7b3          	or	x15,x15,x8
   410d8:	00812403          	lw	x8,8(x2)
   410dc:	01f49513          	slli	x10,x9,0x1f
   410e0:	00a7e533          	or	x10,x15,x10
   410e4:	00412483          	lw	x9,4(x2)
   410e8:	01010113          	addi	x2,x2,16
   410ec:	00008067          	jalr	x0,0(x1)
   410f0:	09900713          	addi	x14,x0,153
   410f4:	06f75463          	bge	x14,x15,4115c <__floatsisf+0xe8>
   410f8:	01b50713          	addi	x14,x10,27
   410fc:	00500693          	addi	x13,x0,5
   41100:	00e41733          	sll	x14,x8,x14
   41104:	40a686b3          	sub	x13,x13,x10
   41108:	00e03733          	sltu	x14,x0,x14
   4110c:	00d45433          	srl	x8,x8,x13
   41110:	00876733          	or	x14,x14,x8
   41114:	fc000437          	lui	x8,0xfc000
   41118:	fff40413          	addi	x8,x8,-1 # fbffffff <__stack_top+0xfbfaffff>
   4111c:	00777693          	andi	x13,x14,7
   41120:	00877433          	and	x8,x14,x8
   41124:	04068263          	beq	x13,x0,41168 <__floatsisf+0xf4>
   41128:	00f77713          	andi	x14,x14,15
   4112c:	00400693          	addi	x13,x0,4
   41130:	02d70c63          	beq	x14,x13,41168 <__floatsisf+0xf4>
   41134:	00d40433          	add	x8,x8,x13
   41138:	00541693          	slli	x13,x8,0x5
   4113c:	00345713          	srli	x14,x8,0x3
   41140:	0206d463          	bge	x13,x0,41168 <__floatsisf+0xf4>
   41144:	1f800437          	lui	x8,0x1f800
   41148:	09f00793          	addi	x15,x0,159
   4114c:	fff40413          	addi	x8,x8,-1 # 1f7fffff <__stack_top+0x1f7affff>
   41150:	40a787b3          	sub	x15,x15,x10
   41154:	00877433          	and	x8,x14,x8
   41158:	f6dff06f          	jal	x0,410c4 <__floatsisf+0x50>
   4115c:	ffb50713          	addi	x14,x10,-5
   41160:	00e41733          	sll	x14,x8,x14
   41164:	fb1ff06f          	jal	x0,41114 <__floatsisf+0xa0>
   41168:	00345413          	srli	x8,x8,0x3
   4116c:	f59ff06f          	jal	x0,410c4 <__floatsisf+0x50>
   41170:	00000493          	addi	x9,x0,0
   41174:	00000413          	addi	x8,x0,0
   41178:	f4dff06f          	jal	x0,410c4 <__floatsisf+0x50>
   4117c:	00070793          	addi	x15,x14,0
   41180:	f45ff06f          	jal	x0,410c4 <__floatsisf+0x50>

00041184 <__mulsi3>:
   41184:	00050613          	addi	x12,x10,0
   41188:	00000513          	addi	x10,x0,0
   4118c:	0015f693          	andi	x13,x11,1
   41190:	00068463          	beq	x13,x0,41198 <__mulsi3+0x14>
   41194:	00c50533          	add	x10,x10,x12
   41198:	0015d593          	srli	x11,x11,0x1
   4119c:	00161613          	slli	x12,x12,0x1
   411a0:	fe0596e3          	bne	x11,x0,4118c <__mulsi3+0x8>
   411a4:	00008067          	jalr	x0,0(x1)

000411a8 <__divsi3>:
   411a8:	06054063          	blt	x10,x0,41208 <__umodsi3+0x10>
   411ac:	0605c663          	blt	x11,x0,41218 <__umodsi3+0x20>

000411b0 <__hidden___udivsi3>:
000411b0 <__udivsi3>:
   411b0:	00058613          	addi	x12,x11,0
   411b4:	00050593          	addi	x11,x10,0
   411b8:	fff00513          	addi	x10,x0,-1
   411bc:	02060c63          	beq	x12,x0,411f4 <__hidden___udivsi3+0x44>
   411c0:	00100693          	addi	x13,x0,1
   411c4:	00b67a63          	bgeu	x12,x11,411d8 <__hidden___udivsi3+0x28>
   411c8:	00c05863          	bge	x0,x12,411d8 <__hidden___udivsi3+0x28>
   411cc:	00161613          	slli	x12,x12,0x1
   411d0:	00169693          	slli	x13,x13,0x1
   411d4:	feb66ae3          	bltu	x12,x11,411c8 <__hidden___udivsi3+0x18>
   411d8:	00000513          	addi	x10,x0,0
   411dc:	00c5e663          	bltu	x11,x12,411e8 <__hidden___udivsi3+0x38>
   411e0:	40c585b3          	sub	x11,x11,x12
   411e4:	00d56533          	or	x10,x10,x13
   411e8:	0016d693          	srli	x13,x13,0x1
   411ec:	00165613          	srli	x12,x12,0x1
   411f0:	fe0696e3          	bne	x13,x0,411dc <__hidden___udivsi3+0x2c>
   411f4:	00008067          	jalr	x0,0(x1)

000411f8 <__umodsi3>:
   411f8:	00008293          	addi	x5,x1,0
   411fc:	fb5ff0ef          	jal	x1,411b0 <__hidden___udivsi3>
   41200:	00058513          	addi	x10,x11,0
   41204:	00028067          	jalr	x0,0(x5)
   41208:	40a00533          	sub	x10,x0,x10
   4120c:	00b04863          	blt	x0,x11,4121c <__umodsi3+0x24>
   41210:	40b005b3          	sub	x11,x0,x11
   41214:	f9dff06f          	jal	x0,411b0 <__hidden___udivsi3>
   41218:	40b005b3          	sub	x11,x0,x11
   4121c:	00008293          	addi	x5,x1,0
   41220:	f91ff0ef          	jal	x1,411b0 <__hidden___udivsi3>
   41224:	40a00533          	sub	x10,x0,x10
   41228:	00028067          	jalr	x0,0(x5)

0004122c <__modsi3>:
   4122c:	00008293          	addi	x5,x1,0
   41230:	0005ca63          	blt	x11,x0,41244 <__modsi3+0x18>
   41234:	00054c63          	blt	x10,x0,4124c <__modsi3+0x20>
   41238:	f79ff0ef          	jal	x1,411b0 <__hidden___udivsi3>
   4123c:	00058513          	addi	x10,x11,0
   41240:	00028067          	jalr	x0,0(x5)
   41244:	40b005b3          	sub	x11,x0,x11
   41248:	fe0558e3          	bge	x10,x0,41238 <__modsi3+0xc>
   4124c:	40a00533          	sub	x10,x0,x10
   41250:	f61ff0ef          	jal	x1,411b0 <__hidden___udivsi3>
   41254:	40b00533          	sub	x10,x0,x11
   41258:	00028067          	jalr	x0,0(x5)

0004125c <__clzsi2>:
   4125c:	000107b7          	lui	x15,0x10
   41260:	02f57a63          	bgeu	x10,x15,41294 <__clzsi2+0x38>
   41264:	10053793          	sltiu	x15,x10,256
   41268:	0017b793          	sltiu	x15,x15,1
   4126c:	00379793          	slli	x15,x15,0x3
   41270:	00043737          	lui	x14,0x43
   41274:	02000693          	addi	x13,x0,32
   41278:	40f686b3          	sub	x13,x13,x15
   4127c:	00f55533          	srl	x10,x10,x15
   41280:	41870793          	addi	x15,x14,1048 # 43418 <__clz_tab>
   41284:	00a787b3          	add	x15,x15,x10
   41288:	0007c503          	lbu	x10,0(x15) # 10000 <_start-0x30000>
   4128c:	40a68533          	sub	x10,x13,x10
   41290:	00008067          	jalr	x0,0(x1)
   41294:	01000737          	lui	x14,0x1000
   41298:	01800793          	addi	x15,x0,24
   4129c:	fce57ae3          	bgeu	x10,x14,41270 <__clzsi2+0x14>
   412a0:	01000793          	addi	x15,x0,16
   412a4:	fcdff06f          	jal	x0,41270 <__clzsi2+0x14>

000412a8 <Proc_2>:
   412a8:	82d1c703          	lbu	x14,-2003(x3) # 44145 <Ch_1_Glob>
   412ac:	04100793          	addi	x15,x0,65
   412b0:	00f70463          	beq	x14,x15,412b8 <Proc_2+0x10>
   412b4:	00008067          	jalr	x0,0(x1)
   412b8:	00052783          	lw	x15,0(x10)
   412bc:	8341a703          	lw	x14,-1996(x3) # 4414c <Int_Glob>
   412c0:	00978793          	addi	x15,x15,9
   412c4:	40e787b3          	sub	x15,x15,x14
   412c8:	00f52023          	sw	x15,0(x10)
   412cc:	00008067          	jalr	x0,0(x1)

000412d0 <Proc_3>:
   412d0:	83c1a603          	lw	x12,-1988(x3) # 44154 <Ptr_Glob>
   412d4:	00060863          	beq	x12,x0,412e4 <Proc_3+0x14>
   412d8:	00062703          	lw	x14,0(x12)
   412dc:	00e52023          	sw	x14,0(x10)
   412e0:	83c1a603          	lw	x12,-1988(x3) # 44154 <Ptr_Glob>
   412e4:	8341a583          	lw	x11,-1996(x3) # 4414c <Int_Glob>
   412e8:	00c60613          	addi	x12,x12,12
   412ec:	00a00513          	addi	x10,x0,10
   412f0:	0090006f          	jal	x0,41af8 <Proc_7>

000412f4 <Proc_1>:
   412f4:	83c1a783          	lw	x15,-1988(x3) # 44154 <Ptr_Glob>
   412f8:	ff010113          	addi	x2,x2,-16
   412fc:	00812423          	sw	x8,8(x2)
   41300:	0007a703          	lw	x14,0(x15)
   41304:	00052403          	lw	x8,0(x10)
   41308:	0047ae83          	lw	x29,4(x15)
   4130c:	0087ae03          	lw	x28,8(x15)
   41310:	0107a303          	lw	x6,16(x15)
   41314:	0147a883          	lw	x17,20(x15)
   41318:	0187a803          	lw	x16,24(x15)
   4131c:	0207a583          	lw	x11,32(x15)
   41320:	0247a603          	lw	x12,36(x15)
   41324:	0287a683          	lw	x13,40(x15)
   41328:	00912223          	sw	x9,4(x2)
   4132c:	00112623          	sw	x1,12(x2)
   41330:	00050493          	addi	x9,x10,0
   41334:	01c7a503          	lw	x10,28(x15)
   41338:	02c7a783          	lw	x15,44(x15)
   4133c:	00e42023          	sw	x14,0(x8)
   41340:	0004a703          	lw	x14,0(x9)
   41344:	00a42e23          	sw	x10,28(x8)
   41348:	02f42623          	sw	x15,44(x8)
   4134c:	01d42223          	sw	x29,4(x8)
   41350:	00500793          	addi	x15,x0,5
   41354:	01c42423          	sw	x28,8(x8)
   41358:	00642823          	sw	x6,16(x8)
   4135c:	01142a23          	sw	x17,20(x8)
   41360:	01042c23          	sw	x16,24(x8)
   41364:	02b42023          	sw	x11,32(x8)
   41368:	02c42223          	sw	x12,36(x8)
   4136c:	02d42423          	sw	x13,40(x8)
   41370:	00f4a623          	sw	x15,12(x9)
   41374:	00f42623          	sw	x15,12(x8)
   41378:	00e42023          	sw	x14,0(x8)
   4137c:	00040513          	addi	x10,x8,0
   41380:	f51ff0ef          	jal	x1,412d0 <Proc_3>
   41384:	00442783          	lw	x15,4(x8)
   41388:	06078e63          	beq	x15,x0,41404 <Proc_1+0x110>
   4138c:	0004a783          	lw	x15,0(x9)
   41390:	00c12083          	lw	x1,12(x2)
   41394:	00812403          	lw	x8,8(x2)
   41398:	0007af83          	lw	x31,0(x15)
   4139c:	0047af03          	lw	x30,4(x15)
   413a0:	0087ae83          	lw	x29,8(x15)
   413a4:	00c7ae03          	lw	x28,12(x15)
   413a8:	0107a303          	lw	x6,16(x15)
   413ac:	0147a883          	lw	x17,20(x15)
   413b0:	0187a803          	lw	x16,24(x15)
   413b4:	01c7a583          	lw	x11,28(x15)
   413b8:	0207a603          	lw	x12,32(x15)
   413bc:	0247a683          	lw	x13,36(x15)
   413c0:	0287a703          	lw	x14,40(x15)
   413c4:	02c7a783          	lw	x15,44(x15)
   413c8:	01f4a023          	sw	x31,0(x9)
   413cc:	01e4a223          	sw	x30,4(x9)
   413d0:	01d4a423          	sw	x29,8(x9)
   413d4:	01c4a623          	sw	x28,12(x9)
   413d8:	0064a823          	sw	x6,16(x9)
   413dc:	0114aa23          	sw	x17,20(x9)
   413e0:	0104ac23          	sw	x16,24(x9)
   413e4:	00b4ae23          	sw	x11,28(x9)
   413e8:	02c4a023          	sw	x12,32(x9)
   413ec:	02d4a223          	sw	x13,36(x9)
   413f0:	02e4a423          	sw	x14,40(x9)
   413f4:	02f4a623          	sw	x15,44(x9)
   413f8:	00412483          	lw	x9,4(x2)
   413fc:	01010113          	addi	x2,x2,16
   41400:	00008067          	jalr	x0,0(x1)
   41404:	0084a503          	lw	x10,8(x9)
   41408:	00600793          	addi	x15,x0,6
   4140c:	00f42623          	sw	x15,12(x8)
   41410:	00840593          	addi	x11,x8,8
   41414:	001000ef          	jal	x1,41c14 <Proc_6>
   41418:	83c1a783          	lw	x15,-1988(x3) # 44154 <Ptr_Glob>
   4141c:	00c42503          	lw	x10,12(x8)
   41420:	00c40613          	addi	x12,x8,12
   41424:	0007a783          	lw	x15,0(x15)
   41428:	00c12083          	lw	x1,12(x2)
   4142c:	00412483          	lw	x9,4(x2)
   41430:	00f42023          	sw	x15,0(x8)
   41434:	00812403          	lw	x8,8(x2)
   41438:	00a00593          	addi	x11,x0,10
   4143c:	01010113          	addi	x2,x2,16
   41440:	6b80006f          	jal	x0,41af8 <Proc_7>

00041444 <Proc_4>:
   41444:	82d1c783          	lbu	x15,-2003(x3) # 44145 <Ch_1_Glob>
   41448:	8301a703          	lw	x14,-2000(x3) # 44148 <Bool_Glob>
   4144c:	fbf78793          	addi	x15,x15,-65
   41450:	0017b793          	sltiu	x15,x15,1
   41454:	00e7e7b3          	or	x15,x15,x14
   41458:	04200613          	addi	x12,x0,66
   4145c:	82f1a823          	sw	x15,-2000(x3) # 44148 <Bool_Glob>
   41460:	82c18623          	sb	x12,-2004(x3) # 44144 <Ch_2_Glob>
   41464:	00008067          	jalr	x0,0(x1)

00041468 <Proc_5>:
   41468:	04100693          	addi	x13,x0,65
   4146c:	82d186a3          	sb	x13,-2003(x3) # 44145 <Ch_1_Glob>
   41470:	8201a823          	sw	x0,-2000(x3) # 44148 <Bool_Glob>
   41474:	00008067          	jalr	x0,0(x1)

00041478 <main>:
   41478:	f9010113          	addi	x2,x2,-112
   4147c:	03000513          	addi	x10,x0,48
   41480:	06112623          	sw	x1,108(x2)
   41484:	06812423          	sw	x8,104(x2)
   41488:	06912223          	sw	x9,100(x2)
   4148c:	07212023          	sw	x18,96(x2)
   41490:	05312e23          	sw	x19,92(x2)
   41494:	05412c23          	sw	x20,88(x2)
   41498:	05512a23          	sw	x21,84(x2)
   4149c:	05612823          	sw	x22,80(x2)
   414a0:	15c010ef          	jal	x1,425fc <malloc>
   414a4:	00050713          	addi	x14,x10,0
   414a8:	03000513          	addi	x10,x0,48
   414ac:	82e1ac23          	sw	x14,-1992(x3) # 44150 <Next_Ptr_Glob>
   414b0:	14c010ef          	jal	x1,425fc <malloc>
   414b4:	8381a683          	lw	x13,-1992(x3) # 44150 <Next_Ptr_Glob>
   414b8:	82a1ae23          	sw	x10,-1988(x3) # 44154 <Ptr_Glob>
   414bc:	00200713          	addi	x14,x0,2
   414c0:	02800793          	addi	x15,x0,40
   414c4:	00002597          	auipc	x11,0x2
   414c8:	00d52023          	sw	x13,0(x10)
   414cc:	00e52423          	sw	x14,8(x10)
   414d0:	00f52623          	sw	x15,12(x10)
   414d4:	00052223          	sw	x0,4(x10)
   414d8:	05458593          	addi	x11,x11,84 # 43518 <__clz_tab+0x100>
   414dc:	01050513          	addi	x10,x10,16
   414e0:	229010ef          	jal	x1,42f08 <strcpy>
   414e4:	00002597          	auipc	x11,0x2
   414e8:	05858593          	addi	x11,x11,88 # 4353c <__clz_tab+0x124>
   414ec:	01010513          	addi	x10,x2,16
   414f0:	219010ef          	jal	x1,42f08 <strcpy>
   414f4:	00003797          	auipc	x15,0x3
   414f8:	00002517          	auipc	x10,0x2
   414fc:	c7878793          	addi	x15,x15,-904 # 4416c <Arr_2_Glob>
   41500:	00a00713          	addi	x14,x0,10
   41504:	06450513          	addi	x10,x10,100 # 4355c <__clz_tab+0x144>
   41508:	64e7ae23          	sw	x14,1628(x15)
   4150c:	08d000ef          	jal	x1,41d98 <mini_printf>
   41510:	00002517          	auipc	x10,0x2
   41514:	05050513          	addi	x10,x10,80 # 43560 <__clz_tab+0x148>
   41518:	081000ef          	jal	x1,41d98 <mini_printf>
   4151c:	00002517          	auipc	x10,0x2
   41520:	04050513          	addi	x10,x10,64 # 4355c <__clz_tab+0x144>
   41524:	075000ef          	jal	x1,41d98 <mini_printf>
   41528:	8281a783          	lw	x15,-2008(x3) # 44140 <Reg>
   4152c:	58078463          	beq	x15,x0,41ab4 <main+0x63c>
   41530:	00002517          	auipc	x10,0x2
   41534:	06050513          	addi	x10,x10,96 # 43590 <__clz_tab+0x178>
   41538:	061000ef          	jal	x1,41d98 <mini_printf>
   4153c:	00002517          	auipc	x10,0x2
   41540:	02050513          	addi	x10,x10,32 # 4355c <__clz_tab+0x144>
   41544:	055000ef          	jal	x1,41d98 <mini_printf>
   41548:	00002517          	auipc	x10,0x2
   4154c:	3e800593          	addi	x11,x0,1000
   41550:	0a450513          	addi	x10,x10,164 # 435ec <__clz_tab+0x1d4>
   41554:	045000ef          	jal	x1,41d98 <mini_printf>
   41558:	77c000ef          	jal	x1,41cd4 <time_s>
   4155c:	00100493          	addi	x9,x0,1
   41560:	82a1a223          	sw	x10,-2012(x3) # 4413c <Begin_Time>
   41564:	00048a13          	addi	x20,x9,0
   41568:	00700993          	addi	x19,x0,7
   4156c:	00300913          	addi	x18,x0,3
   41570:	ef9ff0ef          	jal	x1,41468 <Proc_5>
   41574:	ed1ff0ef          	jal	x1,41444 <Proc_4>
   41578:	00002597          	auipc	x11,0x2
   4157c:	0a458593          	addi	x11,x11,164 # 4361c <__clz_tab+0x204>
   41580:	03010513          	addi	x10,x2,48
   41584:	185010ef          	jal	x1,42f08 <strcpy>
   41588:	03010593          	addi	x11,x2,48
   4158c:	01010513          	addi	x10,x2,16
   41590:	01412623          	sw	x20,12(x2)
   41594:	5f8000ef          	jal	x1,41b8c <Func_2>
   41598:	00153713          	sltiu	x14,x10,1
   4159c:	00810613          	addi	x12,x2,8
   415a0:	00300593          	addi	x11,x0,3
   415a4:	00200513          	addi	x10,x0,2
   415a8:	82e1a823          	sw	x14,-2000(x3) # 44148 <Bool_Glob>
   415ac:	01312423          	sw	x19,8(x2)
   415b0:	548000ef          	jal	x1,41af8 <Proc_7>
   415b4:	00812683          	lw	x13,8(x2)
   415b8:	00003597          	auipc	x11,0x3
   415bc:	00005517          	auipc	x10,0x5
   415c0:	bb458593          	addi	x11,x11,-1100 # 4416c <Arr_2_Glob>
   415c4:	00300613          	addi	x12,x0,3
   415c8:	2c050513          	addi	x10,x10,704 # 4687c <Arr_1_Glob>
   415cc:	01212223          	sw	x18,4(x2)
   415d0:	538000ef          	jal	x1,41b08 <Proc_8>
   415d4:	83c1a503          	lw	x10,-1988(x3) # 44154 <Ptr_Glob>
   415d8:	d1dff0ef          	jal	x1,412f4 <Proc_1>
   415dc:	82c1c703          	lbu	x14,-2004(x3) # 44144 <Ch_2_Glob>
   415e0:	04000793          	addi	x15,x0,64
   415e4:	4ce7f463          	bgeu	x15,x14,41aac <main+0x634>
   415e8:	04100413          	addi	x8,x0,65
   415ec:	00300a93          	addi	x21,x0,3
   415f0:	04300593          	addi	x11,x0,67
   415f4:	00040513          	addi	x10,x8,0
   415f8:	574000ef          	jal	x1,41b6c <Func_1>
   415fc:	00c12783          	lw	x15,12(x2)
   41600:	00140713          	addi	x14,x8,1
   41604:	46f50863          	beq	x10,x15,41a74 <main+0x5fc>
   41608:	82c1c783          	lbu	x15,-2004(x3) # 44144 <Ch_2_Glob>
   4160c:	0ff77413          	andi	x8,x14,255
   41610:	fe87f0e3          	bgeu	x15,x8,415f0 <main+0x178>
   41614:	001a9793          	slli	x15,x21,0x1
   41618:	01578ab3          	add	x21,x15,x21
   4161c:	00812b03          	lw	x22,8(x2)
   41620:	000a8513          	addi	x10,x21,0
   41624:	00148493          	addi	x9,x9,1
   41628:	000b0593          	addi	x11,x22,0
   4162c:	b7dff0ef          	jal	x1,411a8 <__divsi3>
   41630:	00050413          	addi	x8,x10,0
   41634:	00410513          	addi	x10,x2,4
   41638:	00812223          	sw	x8,4(x2)
   4163c:	c6dff0ef          	jal	x1,412a8 <Proc_2>
   41640:	3e900793          	addi	x15,x0,1001
   41644:	f2f496e3          	bne	x9,x15,41570 <main+0xf8>
   41648:	68c000ef          	jal	x1,41cd4 <time_s>
   4164c:	00050713          	addi	x14,x10,0
   41650:	00002517          	auipc	x10,0x2
   41654:	00c50513          	addi	x10,x10,12 # 4365c <__clz_tab+0x244>
   41658:	82e1a023          	sw	x14,-2016(x3) # 44138 <End_Time>
   4165c:	73c000ef          	jal	x1,41d98 <mini_printf>
   41660:	00002517          	auipc	x10,0x2
   41664:	efc50513          	addi	x10,x10,-260 # 4355c <__clz_tab+0x144>
   41668:	730000ef          	jal	x1,41d98 <mini_printf>
   4166c:	00002517          	auipc	x10,0x2
   41670:	00050513          	addi	x10,x10,0 # 4366c <__clz_tab+0x254>
   41674:	724000ef          	jal	x1,41d98 <mini_printf>
   41678:	00002517          	auipc	x10,0x2
   4167c:	ee450513          	addi	x10,x10,-284 # 4355c <__clz_tab+0x144>
   41680:	718000ef          	jal	x1,41d98 <mini_printf>
   41684:	8341a583          	lw	x11,-1996(x3) # 4414c <Int_Glob>
   41688:	00002517          	auipc	x10,0x2
   4168c:	01c50513          	addi	x10,x10,28 # 436a4 <__clz_tab+0x28c>
   41690:	708000ef          	jal	x1,41d98 <mini_printf>
   41694:	00002517          	auipc	x10,0x2
   41698:	00500593          	addi	x11,x0,5
   4169c:	02c50513          	addi	x10,x10,44 # 436c0 <__clz_tab+0x2a8>
   416a0:	6f8000ef          	jal	x1,41d98 <mini_printf>
   416a4:	8301a583          	lw	x11,-2000(x3) # 44148 <Bool_Glob>
   416a8:	00002517          	auipc	x10,0x2
   416ac:	03450513          	addi	x10,x10,52 # 436dc <__clz_tab+0x2c4>
   416b0:	6e8000ef          	jal	x1,41d98 <mini_printf>
   416b4:	00002517          	auipc	x10,0x2
   416b8:	00100593          	addi	x11,x0,1
   416bc:	00c50513          	addi	x10,x10,12 # 436c0 <__clz_tab+0x2a8>
   416c0:	6d8000ef          	jal	x1,41d98 <mini_printf>
   416c4:	82d1c583          	lbu	x11,-2003(x3) # 44145 <Ch_1_Glob>
   416c8:	00002517          	auipc	x10,0x2
   416cc:	03050513          	addi	x10,x10,48 # 436f8 <__clz_tab+0x2e0>
   416d0:	6c8000ef          	jal	x1,41d98 <mini_printf>
   416d4:	00002517          	auipc	x10,0x2
   416d8:	04100593          	addi	x11,x0,65
   416dc:	04050513          	addi	x10,x10,64 # 43714 <__clz_tab+0x2fc>
   416e0:	6b8000ef          	jal	x1,41d98 <mini_printf>
   416e4:	82c1c583          	lbu	x11,-2004(x3) # 44144 <Ch_2_Glob>
   416e8:	00002517          	auipc	x10,0x2
   416ec:	04850513          	addi	x10,x10,72 # 43730 <__clz_tab+0x318>
   416f0:	6a8000ef          	jal	x1,41d98 <mini_printf>
   416f4:	00002517          	auipc	x10,0x2
   416f8:	04200593          	addi	x11,x0,66
   416fc:	02050513          	addi	x10,x10,32 # 43714 <__clz_tab+0x2fc>
   41700:	698000ef          	jal	x1,41d98 <mini_printf>
   41704:	00005797          	auipc	x15,0x5
   41708:	17878793          	addi	x15,x15,376 # 4687c <Arr_1_Glob>
   4170c:	0207a583          	lw	x11,32(x15)
   41710:	00002517          	auipc	x10,0x2
   41714:	03c50513          	addi	x10,x10,60 # 4374c <__clz_tab+0x334>
   41718:	680000ef          	jal	x1,41d98 <mini_printf>
   4171c:	00002517          	auipc	x10,0x2
   41720:	00700593          	addi	x11,x0,7
   41724:	fa450513          	addi	x10,x10,-92 # 436c0 <__clz_tab+0x2a8>
   41728:	670000ef          	jal	x1,41d98 <mini_printf>
   4172c:	00003797          	auipc	x15,0x3
   41730:	a4078793          	addi	x15,x15,-1472 # 4416c <Arr_2_Glob>
   41734:	65c7a583          	lw	x11,1628(x15)
   41738:	00002517          	auipc	x10,0x2
   4173c:	03050513          	addi	x10,x10,48 # 43768 <__clz_tab+0x350>
   41740:	658000ef          	jal	x1,41d98 <mini_printf>
   41744:	00002517          	auipc	x10,0x2
   41748:	04050513          	addi	x10,x10,64 # 43784 <__clz_tab+0x36c>
   4174c:	64c000ef          	jal	x1,41d98 <mini_printf>
   41750:	00002517          	auipc	x10,0x2
   41754:	06050513          	addi	x10,x10,96 # 437b0 <__clz_tab+0x398>
   41758:	640000ef          	jal	x1,41d98 <mini_printf>
   4175c:	83c1a783          	lw	x15,-1988(x3) # 44154 <Ptr_Glob>
   41760:	00002517          	auipc	x10,0x2
   41764:	05c50513          	addi	x10,x10,92 # 437bc <__clz_tab+0x3a4>
   41768:	0007a583          	lw	x11,0(x15)
   4176c:	416a8ab3          	sub	x21,x21,x22
   41770:	628000ef          	jal	x1,41d98 <mini_printf>
   41774:	00002517          	auipc	x10,0x2
   41778:	06450513          	addi	x10,x10,100 # 437d8 <__clz_tab+0x3c0>
   4177c:	61c000ef          	jal	x1,41d98 <mini_printf>
   41780:	83c1a783          	lw	x15,-1988(x3) # 44154 <Ptr_Glob>
   41784:	00002517          	auipc	x10,0x2
   41788:	08850513          	addi	x10,x10,136 # 4380c <__clz_tab+0x3f4>
   4178c:	0047a583          	lw	x11,4(x15)
   41790:	608000ef          	jal	x1,41d98 <mini_printf>
   41794:	00002517          	auipc	x10,0x2
   41798:	00000593          	addi	x11,x0,0
   4179c:	f2c50513          	addi	x10,x10,-212 # 436c0 <__clz_tab+0x2a8>
   417a0:	5f8000ef          	jal	x1,41d98 <mini_printf>
   417a4:	83c1a783          	lw	x15,-1988(x3) # 44154 <Ptr_Glob>
   417a8:	00002517          	auipc	x10,0x2
   417ac:	08050513          	addi	x10,x10,128 # 43828 <__clz_tab+0x410>
   417b0:	0087a583          	lw	x11,8(x15)
   417b4:	5e4000ef          	jal	x1,41d98 <mini_printf>
   417b8:	00002517          	auipc	x10,0x2
   417bc:	00200593          	addi	x11,x0,2
   417c0:	f0850513          	addi	x10,x10,-248 # 436c0 <__clz_tab+0x2a8>
   417c4:	5d4000ef          	jal	x1,41d98 <mini_printf>
   417c8:	83c1a783          	lw	x15,-1988(x3) # 44154 <Ptr_Glob>
   417cc:	00002517          	auipc	x10,0x2
   417d0:	07850513          	addi	x10,x10,120 # 43844 <__clz_tab+0x42c>
   417d4:	00c7a583          	lw	x11,12(x15)
   417d8:	5c0000ef          	jal	x1,41d98 <mini_printf>
   417dc:	00002517          	auipc	x10,0x2
   417e0:	01100593          	addi	x11,x0,17
   417e4:	ee450513          	addi	x10,x10,-284 # 436c0 <__clz_tab+0x2a8>
   417e8:	5b0000ef          	jal	x1,41d98 <mini_printf>
   417ec:	83c1a583          	lw	x11,-1988(x3) # 44154 <Ptr_Glob>
   417f0:	00002517          	auipc	x10,0x2
   417f4:	07050513          	addi	x10,x10,112 # 43860 <__clz_tab+0x448>
   417f8:	01058593          	addi	x11,x11,16
   417fc:	59c000ef          	jal	x1,41d98 <mini_printf>
   41800:	00002517          	auipc	x10,0x2
   41804:	07c50513          	addi	x10,x10,124 # 4387c <__clz_tab+0x464>
   41808:	590000ef          	jal	x1,41d98 <mini_printf>
   4180c:	00002517          	auipc	x10,0x2
   41810:	0a850513          	addi	x10,x10,168 # 438b4 <__clz_tab+0x49c>
   41814:	584000ef          	jal	x1,41d98 <mini_printf>
   41818:	8381a783          	lw	x15,-1992(x3) # 44150 <Next_Ptr_Glob>
   4181c:	00002517          	auipc	x10,0x2
   41820:	fa050513          	addi	x10,x10,-96 # 437bc <__clz_tab+0x3a4>
   41824:	0007a583          	lw	x11,0(x15)
   41828:	570000ef          	jal	x1,41d98 <mini_printf>
   4182c:	00002517          	auipc	x10,0x2
   41830:	09c50513          	addi	x10,x10,156 # 438c8 <__clz_tab+0x4b0>
   41834:	564000ef          	jal	x1,41d98 <mini_printf>
   41838:	8381a783          	lw	x15,-1992(x3) # 44150 <Next_Ptr_Glob>
   4183c:	00002517          	auipc	x10,0x2
   41840:	fd050513          	addi	x10,x10,-48 # 4380c <__clz_tab+0x3f4>
   41844:	0047a583          	lw	x11,4(x15)
   41848:	550000ef          	jal	x1,41d98 <mini_printf>
   4184c:	00002517          	auipc	x10,0x2
   41850:	00000593          	addi	x11,x0,0
   41854:	e7450513          	addi	x10,x10,-396 # 436c0 <__clz_tab+0x2a8>
   41858:	540000ef          	jal	x1,41d98 <mini_printf>
   4185c:	8381a783          	lw	x15,-1992(x3) # 44150 <Next_Ptr_Glob>
   41860:	00002517          	auipc	x10,0x2
   41864:	fc850513          	addi	x10,x10,-56 # 43828 <__clz_tab+0x410>
   41868:	0087a583          	lw	x11,8(x15)
   4186c:	52c000ef          	jal	x1,41d98 <mini_printf>
   41870:	00002517          	auipc	x10,0x2
   41874:	00100593          	addi	x11,x0,1
   41878:	e5050513          	addi	x10,x10,-432 # 436c0 <__clz_tab+0x2a8>
   4187c:	51c000ef          	jal	x1,41d98 <mini_printf>
   41880:	8381a783          	lw	x15,-1992(x3) # 44150 <Next_Ptr_Glob>
   41884:	00002517          	auipc	x10,0x2
   41888:	fc050513          	addi	x10,x10,-64 # 43844 <__clz_tab+0x42c>
   4188c:	00c7a583          	lw	x11,12(x15)
   41890:	508000ef          	jal	x1,41d98 <mini_printf>
   41894:	00002517          	auipc	x10,0x2
   41898:	01200593          	addi	x11,x0,18
   4189c:	e2c50513          	addi	x10,x10,-468 # 436c0 <__clz_tab+0x2a8>
   418a0:	4f8000ef          	jal	x1,41d98 <mini_printf>
   418a4:	8381a583          	lw	x11,-1992(x3) # 44150 <Next_Ptr_Glob>
   418a8:	00002517          	auipc	x10,0x2
   418ac:	fb850513          	addi	x10,x10,-72 # 43860 <__clz_tab+0x448>
   418b0:	01058593          	addi	x11,x11,16
   418b4:	4e4000ef          	jal	x1,41d98 <mini_printf>
   418b8:	00002517          	auipc	x10,0x2
   418bc:	fc450513          	addi	x10,x10,-60 # 4387c <__clz_tab+0x464>
   418c0:	4d8000ef          	jal	x1,41d98 <mini_printf>
   418c4:	00412583          	lw	x11,4(x2)
   418c8:	00002517          	auipc	x10,0x2
   418cc:	04050513          	addi	x10,x10,64 # 43908 <__clz_tab+0x4f0>
   418d0:	4c8000ef          	jal	x1,41d98 <mini_printf>
   418d4:	00002517          	auipc	x10,0x2
   418d8:	00500593          	addi	x11,x0,5
   418dc:	dec50513          	addi	x10,x10,-532 # 436c0 <__clz_tab+0x2a8>
   418e0:	4b8000ef          	jal	x1,41d98 <mini_printf>
   418e4:	003a9593          	slli	x11,x21,0x3
   418e8:	415585b3          	sub	x11,x11,x21
   418ec:	00002517          	auipc	x10,0x2
   418f0:	408585b3          	sub	x11,x11,x8
   418f4:	03850513          	addi	x10,x10,56 # 43924 <__clz_tab+0x50c>
   418f8:	4a0000ef          	jal	x1,41d98 <mini_printf>
   418fc:	00002517          	auipc	x10,0x2
   41900:	00d00593          	addi	x11,x0,13
   41904:	dc450513          	addi	x10,x10,-572 # 436c0 <__clz_tab+0x2a8>
   41908:	490000ef          	jal	x1,41d98 <mini_printf>
   4190c:	00812583          	lw	x11,8(x2)
   41910:	00002517          	auipc	x10,0x2
   41914:	03050513          	addi	x10,x10,48 # 43940 <__clz_tab+0x528>
   41918:	480000ef          	jal	x1,41d98 <mini_printf>
   4191c:	00002517          	auipc	x10,0x2
   41920:	00700593          	addi	x11,x0,7
   41924:	da450513          	addi	x10,x10,-604 # 436c0 <__clz_tab+0x2a8>
   41928:	470000ef          	jal	x1,41d98 <mini_printf>
   4192c:	00c12583          	lw	x11,12(x2)
   41930:	00002517          	auipc	x10,0x2
   41934:	02c50513          	addi	x10,x10,44 # 4395c <__clz_tab+0x544>
   41938:	460000ef          	jal	x1,41d98 <mini_printf>
   4193c:	00002517          	auipc	x10,0x2
   41940:	00100593          	addi	x11,x0,1
   41944:	d8450513          	addi	x10,x10,-636 # 436c0 <__clz_tab+0x2a8>
   41948:	450000ef          	jal	x1,41d98 <mini_printf>
   4194c:	00002517          	auipc	x10,0x2
   41950:	01010593          	addi	x11,x2,16
   41954:	02c50513          	addi	x10,x10,44 # 43978 <__clz_tab+0x560>
   41958:	440000ef          	jal	x1,41d98 <mini_printf>
   4195c:	00002517          	auipc	x10,0x2
   41960:	03850513          	addi	x10,x10,56 # 43994 <__clz_tab+0x57c>
   41964:	434000ef          	jal	x1,41d98 <mini_printf>
   41968:	00002517          	auipc	x10,0x2
   4196c:	03010593          	addi	x11,x2,48
   41970:	06450513          	addi	x10,x10,100 # 439cc <__clz_tab+0x5b4>
   41974:	424000ef          	jal	x1,41d98 <mini_printf>
   41978:	00002517          	auipc	x10,0x2
   4197c:	07050513          	addi	x10,x10,112 # 439e8 <__clz_tab+0x5d0>
   41980:	418000ef          	jal	x1,41d98 <mini_printf>
   41984:	00002517          	auipc	x10,0x2
   41988:	bd850513          	addi	x10,x10,-1064 # 4355c <__clz_tab+0x144>
   4198c:	40c000ef          	jal	x1,41d98 <mini_printf>
   41990:	8201a583          	lw	x11,-2016(x3) # 44138 <End_Time>
   41994:	8241a683          	lw	x13,-2012(x3) # 4413c <Begin_Time>
   41998:	00100713          	addi	x14,x0,1
   4199c:	40d585b3          	sub	x11,x11,x13
   419a0:	80b1ae23          	sw	x11,-2020(x3) # 44134 <User_Time>
   419a4:	12b75663          	bge	x14,x11,41ad0 <main+0x658>
   419a8:	00058513          	addi	x10,x11,0
   419ac:	ec8ff0ef          	jal	x1,41074 <__floatsisf>
   419b0:	00002797          	auipc	x15,0x2
   419b4:	7687a583          	lw	x11,1896(x15) # 44118 <__SDATA_BEGIN__>
   419b8:	00050493          	addi	x9,x10,0
   419bc:	afcff0ef          	jal	x1,40cb8 <__mulsf3>
   419c0:	00002797          	auipc	x15,0x2
   419c4:	75c7a583          	lw	x11,1884(x15) # 4411c <__SDATA_BEGIN__+0x4>
   419c8:	f7dfe0ef          	jal	x1,40944 <__divsf3>
   419cc:	00002797          	auipc	x15,0x2
   419d0:	00050713          	addi	x14,x10,0
   419d4:	7507a503          	lw	x10,1872(x15) # 4411c <__SDATA_BEGIN__+0x4>
   419d8:	80e1ac23          	sw	x14,-2024(x3) # 44130 <Microseconds>
   419dc:	00048593          	addi	x11,x9,0
   419e0:	f65fe0ef          	jal	x1,40944 <__divsf3>
   419e4:	00050793          	addi	x15,x10,0
   419e8:	00002517          	auipc	x10,0x2
   419ec:	09450513          	addi	x10,x10,148 # 43a7c <__clz_tab+0x664>
   419f0:	80f1aa23          	sw	x15,-2028(x3) # 4412c <Dhrystones_Per_Second>
   419f4:	3a4000ef          	jal	x1,41d98 <mini_printf>
   419f8:	8181a503          	lw	x10,-2024(x3) # 44130 <Microseconds>
   419fc:	e08ff0ef          	jal	x1,41004 <__fixsfsi>
   41a00:	00050593          	addi	x11,x10,0
   41a04:	00002517          	auipc	x10,0x2
   41a08:	0a850513          	addi	x10,x10,168 # 43aac <__clz_tab+0x694>
   41a0c:	38c000ef          	jal	x1,41d98 <mini_printf>
   41a10:	00002517          	auipc	x10,0x2
   41a14:	0a450513          	addi	x10,x10,164 # 43ab4 <__clz_tab+0x69c>
   41a18:	380000ef          	jal	x1,41d98 <mini_printf>
   41a1c:	8141a503          	lw	x10,-2028(x3) # 4412c <Dhrystones_Per_Second>
   41a20:	de4ff0ef          	jal	x1,41004 <__fixsfsi>
   41a24:	00050593          	addi	x11,x10,0
   41a28:	00002517          	auipc	x10,0x2
   41a2c:	08450513          	addi	x10,x10,132 # 43aac <__clz_tab+0x694>
   41a30:	368000ef          	jal	x1,41d98 <mini_printf>
   41a34:	00002517          	auipc	x10,0x2
   41a38:	b2850513          	addi	x10,x10,-1240 # 4355c <__clz_tab+0x144>
   41a3c:	35c000ef          	jal	x1,41d98 <mini_printf>
   41a40:	00100e13          	addi	x28,x0,1
   41a44:	51ee1073          	csrrw	x0,0x51e,x28
   41a48:	06c12083          	lw	x1,108(x2)
   41a4c:	06812403          	lw	x8,104(x2)
   41a50:	06412483          	lw	x9,100(x2)
   41a54:	06012903          	lw	x18,96(x2)
   41a58:	05c12983          	lw	x19,92(x2)
   41a5c:	05812a03          	lw	x20,88(x2)
   41a60:	05412a83          	lw	x21,84(x2)
   41a64:	05012b03          	lw	x22,80(x2)
   41a68:	00000513          	addi	x10,x0,0
   41a6c:	07010113          	addi	x2,x2,112
   41a70:	00008067          	jalr	x0,0(x1)
   41a74:	00c10593          	addi	x11,x2,12
   41a78:	00000513          	addi	x10,x0,0
   41a7c:	198000ef          	jal	x1,41c14 <Proc_6>
   41a80:	00002597          	auipc	x11,0x2
   41a84:	03010513          	addi	x10,x2,48
   41a88:	bbc58593          	addi	x11,x11,-1092 # 4363c <__clz_tab+0x224>
   41a8c:	47c010ef          	jal	x1,42f08 <strcpy>
   41a90:	82c1c703          	lbu	x14,-2004(x3) # 44144 <Ch_2_Glob>
   41a94:	00140413          	addi	x8,x8,1
   41a98:	0ff47413          	andi	x8,x8,255
   41a9c:	8291aa23          	sw	x9,-1996(x3) # 4414c <Int_Glob>
   41aa0:	00048a93          	addi	x21,x9,0
   41aa4:	b48776e3          	bgeu	x14,x8,415f0 <main+0x178>
   41aa8:	b6dff06f          	jal	x0,41614 <main+0x19c>
   41aac:	00900a93          	addi	x21,x0,9
   41ab0:	b6dff06f          	jal	x0,4161c <main+0x1a4>
   41ab4:	00002517          	auipc	x10,0x2
   41ab8:	b0850513          	addi	x10,x10,-1272 # 435bc <__clz_tab+0x1a4>
   41abc:	2dc000ef          	jal	x1,41d98 <mini_printf>
   41ac0:	00002517          	auipc	x10,0x2
   41ac4:	a9c50513          	addi	x10,x10,-1380 # 4355c <__clz_tab+0x144>
   41ac8:	2d0000ef          	jal	x1,41d98 <mini_printf>
   41acc:	a7dff06f          	jal	x0,41548 <main+0xd0>
   41ad0:	00002517          	auipc	x10,0x2
   41ad4:	f5050513          	addi	x10,x10,-176 # 43a20 <__clz_tab+0x608>
   41ad8:	2c0000ef          	jal	x1,41d98 <mini_printf>
   41adc:	00002517          	auipc	x10,0x2
   41ae0:	f8050513          	addi	x10,x10,-128 # 43a5c <__clz_tab+0x644>
   41ae4:	2b4000ef          	jal	x1,41d98 <mini_printf>
   41ae8:	00002517          	auipc	x10,0x2
   41aec:	a7450513          	addi	x10,x10,-1420 # 4355c <__clz_tab+0x144>
   41af0:	2a8000ef          	jal	x1,41d98 <mini_printf>
   41af4:	f4dff06f          	jal	x0,41a40 <main+0x5c8>

00041af8 <Proc_7>:
   41af8:	00250513          	addi	x10,x10,2
   41afc:	00b50533          	add	x10,x10,x11
   41b00:	00a62023          	sw	x10,0(x12)
   41b04:	00008067          	jalr	x0,0(x1)

00041b08 <Proc_8>:
   41b08:	00560713          	addi	x14,x12,5
   41b0c:	0c800813          	addi	x16,x0,200
   41b10:	03070833          	mul	x16,x14,x16
   41b14:	00261613          	slli	x12,x12,0x2
   41b18:	00271793          	slli	x15,x14,0x2
   41b1c:	00f50533          	add	x10,x10,x15
   41b20:	00d52023          	sw	x13,0(x10)
   41b24:	06e52c23          	sw	x14,120(x10)
   41b28:	00d52223          	sw	x13,4(x10)
   41b2c:	00c807b3          	add	x15,x16,x12
   41b30:	00f587b3          	add	x15,x11,x15
   41b34:	0107a683          	lw	x13,16(x15)
   41b38:	00e7aa23          	sw	x14,20(x15)
   41b3c:	00e7ac23          	sw	x14,24(x15)
   41b40:	00168713          	addi	x14,x13,1
   41b44:	00e7a823          	sw	x14,16(x15)
   41b48:	010585b3          	add	x11,x11,x16
   41b4c:	00052803          	lw	x16,0(x10)
   41b50:	00c585b3          	add	x11,x11,x12
   41b54:	00001737          	lui	x14,0x1
   41b58:	00b70733          	add	x14,x14,x11
   41b5c:	00500693          	addi	x13,x0,5
   41b60:	fb072a23          	sw	x16,-76(x14) # fb4 <_start-0x3f04c>
   41b64:	82d1aa23          	sw	x13,-1996(x3) # 4414c <Int_Glob>
   41b68:	00008067          	jalr	x0,0(x1)

00041b6c <Func_1>:
   41b6c:	0ff57513          	andi	x10,x10,255
   41b70:	0ff5f593          	andi	x11,x11,255
   41b74:	00b50663          	beq	x10,x11,41b80 <Func_1+0x14>
   41b78:	00000513          	addi	x10,x0,0
   41b7c:	00008067          	jalr	x0,0(x1)
   41b80:	82a186a3          	sb	x10,-2003(x3) # 44145 <Ch_1_Glob>
   41b84:	00100513          	addi	x10,x0,1
   41b88:	00008067          	jalr	x0,0(x1)

00041b8c <Func_2>:
   41b8c:	fe010113          	addi	x2,x2,-32
   41b90:	00812c23          	sw	x8,24(x2)
   41b94:	00912a23          	sw	x9,20(x2)
   41b98:	01212823          	sw	x18,16(x2)
   41b9c:	01312623          	sw	x19,12(x2)
   41ba0:	00112e23          	sw	x1,28(x2)
   41ba4:	00050413          	addi	x8,x10,0
   41ba8:	00058493          	addi	x9,x11,0
   41bac:	00300993          	addi	x19,x0,3
   41bb0:	00200913          	addi	x18,x0,2
   41bb4:	0034c583          	lbu	x11,3(x9)
   41bb8:	00244503          	lbu	x10,2(x8)
   41bbc:	fb1ff0ef          	jal	x1,41b6c <Func_1>
   41bc0:	40a98533          	sub	x10,x19,x10
   41bc4:	ff2508e3          	beq	x10,x18,41bb4 <Func_2+0x28>
   41bc8:	00048593          	addi	x11,x9,0
   41bcc:	00040513          	addi	x10,x8,0
   41bd0:	e30fe0ef          	jal	x1,40200 <strcmp>
   41bd4:	00000793          	addi	x15,x0,0
   41bd8:	00a05863          	bge	x0,x10,41be8 <Func_2+0x5c>
   41bdc:	00a00713          	addi	x14,x0,10
   41be0:	82e1aa23          	sw	x14,-1996(x3) # 4414c <Int_Glob>
   41be4:	00100793          	addi	x15,x0,1
   41be8:	01c12083          	lw	x1,28(x2)
   41bec:	01812403          	lw	x8,24(x2)
   41bf0:	01412483          	lw	x9,20(x2)
   41bf4:	01012903          	lw	x18,16(x2)
   41bf8:	00c12983          	lw	x19,12(x2)
   41bfc:	00078513          	addi	x10,x15,0
   41c00:	02010113          	addi	x2,x2,32
   41c04:	00008067          	jalr	x0,0(x1)

00041c08 <Func_3>:
   41c08:	ffe50513          	addi	x10,x10,-2
   41c0c:	00153513          	sltiu	x10,x10,1
   41c10:	00008067          	jalr	x0,0(x1)

00041c14 <Proc_6>:
   41c14:	ff010113          	addi	x2,x2,-16
   41c18:	00812423          	sw	x8,8(x2)
   41c1c:	00912223          	sw	x9,4(x2)
   41c20:	00112623          	sw	x1,12(x2)
   41c24:	00058493          	addi	x9,x11,0
   41c28:	00050413          	addi	x8,x10,0
   41c2c:	fddff0ef          	jal	x1,41c08 <Func_3>
   41c30:	00300793          	addi	x15,x0,3
   41c34:	00050463          	beq	x10,x0,41c3c <Proc_6+0x28>
   41c38:	00040793          	addi	x15,x8,0
   41c3c:	00f4a023          	sw	x15,0(x9)
   41c40:	00200793          	addi	x15,x0,2
   41c44:	04f40c63          	beq	x8,x15,41c9c <Proc_6+0x88>
   41c48:	0287ca63          	blt	x15,x8,41c7c <Proc_6+0x68>
   41c4c:	00040c63          	beq	x8,x0,41c64 <Proc_6+0x50>
   41c50:	00100793          	addi	x15,x0,1
   41c54:	02f41a63          	bne	x8,x15,41c88 <Proc_6+0x74>
   41c58:	8341a703          	lw	x14,-1996(x3) # 4414c <Int_Glob>
   41c5c:	06400793          	addi	x15,x0,100
   41c60:	04e7dc63          	bge	x15,x14,41cb8 <Proc_6+0xa4>
   41c64:	00c12083          	lw	x1,12(x2)
   41c68:	00812403          	lw	x8,8(x2)
   41c6c:	0004a023          	sw	x0,0(x9)
   41c70:	00412483          	lw	x9,4(x2)
   41c74:	01010113          	addi	x2,x2,16
   41c78:	00008067          	jalr	x0,0(x1)
   41c7c:	00400713          	addi	x14,x0,4
   41c80:	00e41463          	bne	x8,x14,41c88 <Proc_6+0x74>
   41c84:	00f4a023          	sw	x15,0(x9)
   41c88:	00c12083          	lw	x1,12(x2)
   41c8c:	00812403          	lw	x8,8(x2)
   41c90:	00412483          	lw	x9,4(x2)
   41c94:	01010113          	addi	x2,x2,16
   41c98:	00008067          	jalr	x0,0(x1)
   41c9c:	00c12083          	lw	x1,12(x2)
   41ca0:	00812403          	lw	x8,8(x2)
   41ca4:	00100793          	addi	x15,x0,1
   41ca8:	00f4a023          	sw	x15,0(x9)
   41cac:	00412483          	lw	x9,4(x2)
   41cb0:	01010113          	addi	x2,x2,16
   41cb4:	00008067          	jalr	x0,0(x1)
   41cb8:	00c12083          	lw	x1,12(x2)
   41cbc:	00812403          	lw	x8,8(x2)
   41cc0:	00300793          	addi	x15,x0,3
   41cc4:	00f4a023          	sw	x15,0(x9)
   41cc8:	00412483          	lw	x9,4(x2)
   41ccc:	01010113          	addi	x2,x2,16
   41cd0:	00008067          	jalr	x0,0(x1)

00041cd4 <time_s>:
   41cd4:	ff010113          	addi	x2,x2,-16
   41cd8:	00112623          	sw	x1,12(x2)
   41cdc:	110000ef          	jal	x1,41dec <get_cpu_time>
   41ce0:	000f4637          	lui	x12,0xf4
   41ce4:	24060613          	addi	x12,x12,576 # f4240 <__stack_top+0xa4240>
   41ce8:	00000693          	addi	x13,x0,0
   41cec:	e90fe0ef          	jal	x1,4037c <__udivdi3>
   41cf0:	00c12083          	lw	x1,12(x2)
   41cf4:	01010113          	addi	x2,x2,16
   41cf8:	00008067          	jalr	x0,0(x1)

00041cfc <send_byte_uart0>:
   41cfc:	00050737          	lui	x14,0x50
   41d00:	00072783          	lw	x15,0(x14) # 50000 <__stack_top>
   41d04:	0017f793          	andi	x15,x15,1
   41d08:	fe078ce3          	beq	x15,x0,41d00 <send_byte_uart0+0x4>
   41d0c:	00a72423          	sw	x10,8(x14)
   41d10:	00008067          	jalr	x0,0(x1)

00041d14 <_write>:
   41d14:	ff010113          	addi	x2,x2,-16
   41d18:	01212023          	sw	x18,0(x2)
   41d1c:	00112623          	sw	x1,12(x2)
   41d20:	00060913          	addi	x18,x12,0
   41d24:	02c05663          	bge	x0,x12,41d50 <_write+0x3c>
   41d28:	00812423          	sw	x8,8(x2)
   41d2c:	00912223          	sw	x9,4(x2)
   41d30:	00058413          	addi	x8,x11,0
   41d34:	00c584b3          	add	x9,x11,x12
   41d38:	00044503          	lbu	x10,0(x8)
   41d3c:	00140413          	addi	x8,x8,1
   41d40:	fbdff0ef          	jal	x1,41cfc <send_byte_uart0>
   41d44:	fe849ae3          	bne	x9,x8,41d38 <_write+0x24>
   41d48:	00812403          	lw	x8,8(x2)
   41d4c:	00412483          	lw	x9,4(x2)
   41d50:	00c12083          	lw	x1,12(x2)
   41d54:	00090513          	addi	x10,x18,0
   41d58:	00012903          	lw	x18,0(x2)
   41d5c:	01010113          	addi	x2,x2,16
   41d60:	00008067          	jalr	x0,0(x1)

00041d64 <__puts_uart>:
   41d64:	ff010113          	addi	x2,x2,-16
   41d68:	00812423          	sw	x8,8(x2)
   41d6c:	00058413          	addi	x8,x11,0
   41d70:	00040613          	addi	x12,x8,0
   41d74:	00050593          	addi	x11,x10,0
   41d78:	00000513          	addi	x10,x0,0
   41d7c:	00112623          	sw	x1,12(x2)
   41d80:	f95ff0ef          	jal	x1,41d14 <_write>
   41d84:	00c12083          	lw	x1,12(x2)
   41d88:	00040513          	addi	x10,x8,0
   41d8c:	00812403          	lw	x8,8(x2)
   41d90:	01010113          	addi	x2,x2,16
   41d94:	00008067          	jalr	x0,0(x1)

00041d98 <mini_printf>:
   41d98:	fc010113          	addi	x2,x2,-64
   41d9c:	02410313          	addi	x6,x2,36
   41da0:	00050e13          	addi	x28,x10,0
   41da4:	00000517          	auipc	x10,0x0
   41da8:	02b12223          	sw	x11,36(x2)
   41dac:	02c12423          	sw	x12,40(x2)
   41db0:	02d12623          	sw	x13,44(x2)
   41db4:	000e0613          	addi	x12,x28,0
   41db8:	00030693          	addi	x13,x6,0
   41dbc:	fc050513          	addi	x10,x10,-64 # 41d64 <__puts_uart>
   41dc0:	00000593          	addi	x11,x0,0
   41dc4:	00112e23          	sw	x1,28(x2)
   41dc8:	02e12823          	sw	x14,48(x2)
   41dcc:	02f12a23          	sw	x15,52(x2)
   41dd0:	03012c23          	sw	x16,56(x2)
   41dd4:	03112e23          	sw	x17,60(x2)
   41dd8:	00612623          	sw	x6,12(x2)
   41ddc:	4bc000ef          	jal	x1,42298 <mini_vpprintf>
   41de0:	01c12083          	lw	x1,28(x2)
   41de4:	04010113          	addi	x2,x2,64
   41de8:	00008067          	jalr	x0,0(x1)

00041dec <get_cpu_time>:
   41dec:	c81025f3          	csrrs	x11,timeh,x0
   41df0:	c0102573          	csrrs	x10,time,x0
   41df4:	c81027f3          	csrrs	x15,timeh,x0
   41df8:	fef59ae3          	bne	x11,x15,41dec <get_cpu_time>
   41dfc:	00008067          	jalr	x0,0(x1)

00041e00 <timer_interrupt_handler>:
   41e00:	00050737          	lui	x14,0x50
   41e04:	02872803          	lw	x16,40(x14) # 50028 <__stack_top+0x28>
   41e08:	000027b7          	lui	x15,0x2
   41e0c:	02c72883          	lw	x17,44(x14)
   41e10:	71078793          	addi	x15,x15,1808 # 2710 <_start-0x3d8f0>
   41e14:	00f807b3          	add	x15,x16,x15
   41e18:	0107b533          	sltu	x10,x15,x16
   41e1c:	011506b3          	add	x13,x10,x17
   41e20:	02f72423          	sw	x15,40(x14)
   41e24:	02d72623          	sw	x13,44(x14)
   41e28:	00008067          	jalr	x0,0(x1)

00041e2c <trap_handler>:
   41e2c:	02054463          	blt	x10,x0,41e54 <trap_handler+0x28>
   41e30:	3e850513          	addi	x10,x10,1000
   41e34:	00a00e33          	add	x28,x0,x10
   41e38:	00000793          	addi	x15,x0,0
   41e3c:	00f00eb3          	add	x29,x0,x15
   41e40:	00f00f33          	add	x30,x0,x15
   41e44:	001e1e13          	slli	x28,x28,0x1
   41e48:	001e6e13          	ori	x28,x28,1
   41e4c:	51ee1073          	csrrw	x0,0x51e,x28
   41e50:	00008067          	jalr	x0,0(x1)
   41e54:	800007b7          	lui	x15,0x80000
   41e58:	08078793          	addi	x15,x15,128 # 80000080 <__stack_top+0x7ffb0080>
   41e5c:	02f50463          	beq	x10,x15,41e84 <trap_handler+0x58>
   41e60:	7d050513          	addi	x10,x10,2000
   41e64:	00a00e33          	add	x28,x0,x10
   41e68:	00000793          	addi	x15,x0,0
   41e6c:	00f00eb3          	add	x29,x0,x15
   41e70:	00f00f33          	add	x30,x0,x15
   41e74:	001e1e13          	slli	x28,x28,0x1
   41e78:	001e6e13          	ori	x28,x28,1
   41e7c:	51ee1073          	csrrw	x0,0x51e,x28
   41e80:	00008067          	jalr	x0,0(x1)
   41e84:	f7dff06f          	jal	x0,41e00 <timer_interrupt_handler>

00041e88 <mini_strlen>:
   41e88:	00054783          	lbu	x15,0(x10)
   41e8c:	00050713          	addi	x14,x10,0
   41e90:	00000513          	addi	x10,x0,0
   41e94:	00078c63          	beq	x15,x0,41eac <mini_strlen+0x24>
   41e98:	00150513          	addi	x10,x10,1
   41e9c:	00a707b3          	add	x15,x14,x10
   41ea0:	0007c783          	lbu	x15,0(x15)
   41ea4:	fe079ae3          	bne	x15,x0,41e98 <mini_strlen+0x10>
   41ea8:	00008067          	jalr	x0,0(x1)
   41eac:	00008067          	jalr	x0,0(x1)

00041eb0 <mini_itoa>:
   41eb0:	fd010113          	addi	x2,x2,-48
   41eb4:	02812423          	sw	x8,40(x2)
   41eb8:	02912223          	sw	x9,36(x2)
   41ebc:	01312e23          	sw	x19,28(x2)
   41ec0:	01812423          	sw	x24,8(x2)
   41ec4:	02112623          	sw	x1,44(x2)
   41ec8:	03212023          	sw	x18,32(x2)
   41ecc:	01412c23          	sw	x20,24(x2)
   41ed0:	01512a23          	sw	x21,20(x2)
   41ed4:	01612823          	sw	x22,16(x2)
   41ed8:	01712623          	sw	x23,12(x2)
   41edc:	01912223          	sw	x25,4(x2)
   41ee0:	00050413          	addi	x8,x10,0
   41ee4:	00058993          	addi	x19,x11,0
   41ee8:	00070493          	addi	x9,x14,0
   41eec:	00000c13          	addi	x24,x0,0
   41ef0:	10054c63          	blt	x10,x0,42008 <mini_itoa+0x158>
   41ef4:	00167613          	andi	x12,x12,1
   41ef8:	06100a93          	addi	x21,x0,97
   41efc:	10061263          	bne	x12,x0,42000 <mini_itoa+0x150>
   41f00:	ff6a8a93          	addi	x21,x21,-10
   41f04:	00048a13          	addi	x20,x9,0
   41f08:	00900b13          	addi	x22,x0,9
   41f0c:	00f00b93          	addi	x23,x0,15
   41f10:	00098593          	addi	x11,x19,0
   41f14:	00040513          	addi	x10,x8,0
   41f18:	ae0ff0ef          	jal	x1,411f8 <__umodsi3>
   41f1c:	00050793          	addi	x15,x10,0
   41f20:	0ff7f713          	andi	x14,x15,255
   41f24:	03070693          	addi	x13,x14,48
   41f28:	00040913          	addi	x18,x8,0
   41f2c:	001a0c93          	addi	x25,x20,1
   41f30:	00098593          	addi	x11,x19,0
   41f34:	00040513          	addi	x10,x8,0
   41f38:	01570733          	add	x14,x14,x21
   41f3c:	00fb6e63          	bltu	x22,x15,41f58 <mini_itoa+0xa8>
   41f40:	fedc8fa3          	sb	x13,-1(x25)
   41f44:	a6cff0ef          	jal	x1,411b0 <__hidden___udivsi3>
   41f48:	00050413          	addi	x8,x10,0
   41f4c:	01396e63          	bltu	x18,x19,41f68 <mini_itoa+0xb8>
   41f50:	000c8a13          	addi	x20,x25,0
   41f54:	fbdff06f          	jal	x0,41f10 <mini_itoa+0x60>
   41f58:	00ea0023          	sb	x14,0(x20)
   41f5c:	001a0c93          	addi	x25,x20,1
   41f60:	00445413          	srli	x8,x8,0x4
   41f64:	ff2be6e3          	bltu	x23,x18,41f50 <mini_itoa+0xa0>
   41f68:	080c1463          	bne	x24,x0,41ff0 <mini_itoa+0x140>
   41f6c:	409c8533          	sub	x10,x25,x9
   41f70:	01f55593          	srli	x11,x10,0x1f
   41f74:	00a585b3          	add	x11,x11,x10
   41f78:	000c8023          	sb	x0,0(x25)
   41f7c:	00100793          	addi	x15,x0,1
   41f80:	4015d593          	srai	x11,x11,0x1
   41f84:	02a7dc63          	bge	x15,x10,41fbc <mini_itoa+0x10c>
   41f88:	fff48813          	addi	x16,x9,-1
   41f8c:	fff50713          	addi	x14,x10,-1
   41f90:	00048793          	addi	x15,x9,0
   41f94:	00a80833          	add	x16,x16,x10
   41f98:	00e48733          	add	x14,x9,x14
   41f9c:	00074603          	lbu	x12,0(x14)
   41fa0:	0007c683          	lbu	x13,0(x15)
   41fa4:	fff70713          	addi	x14,x14,-1
   41fa8:	00c78023          	sb	x12,0(x15)
   41fac:	00d700a3          	sb	x13,1(x14)
   41fb0:	40e806b3          	sub	x13,x16,x14
   41fb4:	00178793          	addi	x15,x15,1
   41fb8:	feb6c2e3          	blt	x13,x11,41f9c <mini_itoa+0xec>
   41fbc:	02c12083          	lw	x1,44(x2)
   41fc0:	02812403          	lw	x8,40(x2)
   41fc4:	02412483          	lw	x9,36(x2)
   41fc8:	02012903          	lw	x18,32(x2)
   41fcc:	01c12983          	lw	x19,28(x2)
   41fd0:	01812a03          	lw	x20,24(x2)
   41fd4:	01412a83          	lw	x21,20(x2)
   41fd8:	01012b03          	lw	x22,16(x2)
   41fdc:	00c12b83          	lw	x23,12(x2)
   41fe0:	00812c03          	lw	x24,8(x2)
   41fe4:	00412c83          	lw	x25,4(x2)
   41fe8:	03010113          	addi	x2,x2,48
   41fec:	00008067          	jalr	x0,0(x1)
   41ff0:	02d00793          	addi	x15,x0,45
   41ff4:	00fc8023          	sb	x15,0(x25)
   41ff8:	002a0c93          	addi	x25,x20,2
   41ffc:	f71ff06f          	jal	x0,41f6c <mini_itoa+0xbc>
   42000:	04100a93          	addi	x21,x0,65
   42004:	efdff06f          	jal	x0,41f00 <mini_itoa+0x50>
   42008:	ee0696e3          	bne	x13,x0,41ef4 <mini_itoa+0x44>
   4200c:	40a00433          	sub	x8,x0,x10
   42010:	00100c13          	addi	x24,x0,1
   42014:	ee1ff06f          	jal	x0,41ef4 <mini_itoa+0x44>

00042018 <mini_pad>:
   42018:	0c069263          	bne	x13,x0,420dc <mini_pad+0xc4>
   4201c:	00070613          	addi	x12,x14,0
   42020:	00000313          	addi	x6,x0,0
   42024:	0cb05663          	bge	x0,x11,420f0 <mini_pad+0xd8>
   42028:	00700793          	addi	x15,x0,7
   4202c:	0cb7d663          	bge	x15,x11,420f8 <mini_pad+0xe0>
   42030:	00a667b3          	or	x15,x12,x10
   42034:	0037f793          	andi	x15,x15,3
   42038:	0c079063          	bne	x15,x0,420f8 <mini_pad+0xe0>
   4203c:	00150793          	addi	x15,x10,1
   42040:	40f607b3          	sub	x15,x12,x15
   42044:	0037b793          	sltiu	x15,x15,3
   42048:	0a079863          	bne	x15,x0,420f8 <mini_pad+0xe0>
   4204c:	ffc5f893          	andi	x17,x11,-4
   42050:	01150833          	add	x16,x10,x17
   42054:	00060793          	addi	x15,x12,0
   42058:	00052683          	lw	x13,0(x10)
   4205c:	00450513          	addi	x10,x10,4
   42060:	00478793          	addi	x15,x15,4
   42064:	fed7ae23          	sw	x13,-4(x15)
   42068:	fea818e3          	bne	x16,x10,42058 <mini_pad+0x40>
   4206c:	011607b3          	add	x15,x12,x17
   42070:	411586b3          	sub	x13,x11,x17
   42074:	03158663          	beq	x11,x17,420a0 <mini_pad+0x88>
   42078:	00084883          	lbu	x17,0(x16)
   4207c:	00100513          	addi	x10,x0,1
   42080:	01178023          	sb	x17,0(x15)
   42084:	00a68e63          	beq	x13,x10,420a0 <mini_pad+0x88>
   42088:	00184883          	lbu	x17,1(x16)
   4208c:	00200513          	addi	x10,x0,2
   42090:	011780a3          	sb	x17,1(x15)
   42094:	00a68663          	beq	x13,x10,420a0 <mini_pad+0x88>
   42098:	00284683          	lbu	x13,2(x16)
   4209c:	00d78123          	sb	x13,2(x15)
   420a0:	00b60633          	add	x12,x12,x11
   420a4:	40e60533          	sub	x10,x12,x14
   420a8:	02030863          	beq	x6,x0,420d8 <mini_pad+0xc0>
   420ac:	02c77663          	bgeu	x14,x12,420d8 <mini_pad+0xc0>
   420b0:	02a00793          	addi	x15,x0,42
   420b4:	fef60fa3          	sb	x15,-1(x12)
   420b8:	fff60693          	addi	x13,x12,-1
   420bc:	00d77e63          	bgeu	x14,x13,420d8 <mini_pad+0xc0>
   420c0:	fef60f23          	sb	x15,-2(x12)
   420c4:	ffe60693          	addi	x13,x12,-2
   420c8:	00d77863          	bgeu	x14,x13,420d8 <mini_pad+0xc0>
   420cc:	fef60ea3          	sb	x15,-3(x12)
   420d0:	00008067          	jalr	x0,0(x1)
   420d4:	00088513          	addi	x10,x17,0
   420d8:	00008067          	jalr	x0,0(x1)
   420dc:	04b6d863          	bge	x13,x11,4212c <mini_pad+0x114>
   420e0:	00070613          	addi	x12,x14,0
   420e4:	00068593          	addi	x11,x13,0
   420e8:	00100313          	addi	x6,x0,1
   420ec:	f2d04ee3          	blt	x0,x13,42028 <mini_pad+0x10>
   420f0:	00000513          	addi	x10,x0,0
   420f4:	00008067          	jalr	x0,0(x1)
   420f8:	00060813          	addi	x16,x12,0
   420fc:	00050793          	addi	x15,x10,0
   42100:	0007c883          	lbu	x17,0(x15)
   42104:	00178793          	addi	x15,x15,1
   42108:	40f506b3          	sub	x13,x10,x15
   4210c:	00b686b3          	add	x13,x13,x11
   42110:	01180023          	sb	x17,0(x16)
   42114:	00180813          	addi	x16,x16,1
   42118:	fed044e3          	blt	x0,x13,42100 <mini_pad+0xe8>
   4211c:	00b60633          	add	x12,x12,x11
   42120:	40e60533          	sub	x10,x12,x14
   42124:	f80314e3          	bne	x6,x0,420ac <mini_pad+0x94>
   42128:	00008067          	jalr	x0,0(x1)
   4212c:	40b68eb3          	sub	x29,x13,x11
   42130:	eeb686e3          	beq	x13,x11,4201c <mini_pad+0x4>
   42134:	40e00833          	sub	x16,x0,x14
   42138:	fffe8693          	addi	x13,x29,-1
   4213c:	00500313          	addi	x6,x0,5
   42140:	000e8893          	addi	x17,x29,0
   42144:	00387793          	andi	x15,x16,3
   42148:	08d35063          	bge	x6,x13,421c8 <mini_pad+0x1b0>
   4214c:	0c078863          	beq	x15,x0,4221c <mini_pad+0x204>
   42150:	00c70023          	sb	x12,0(x14)
   42154:	00287813          	andi	x16,x16,2
   42158:	00170e13          	addi	x28,x14,1
   4215c:	02080263          	beq	x16,x0,42180 <mini_pad+0x168>
   42160:	00c700a3          	sb	x12,1(x14)
   42164:	00300813          	addi	x16,x0,3
   42168:	00270e13          	addi	x28,x14,2
   4216c:	ffee8693          	addi	x13,x29,-2
   42170:	01079863          	bne	x15,x16,42180 <mini_pad+0x168>
   42174:	00c70123          	sb	x12,2(x14)
   42178:	01070e33          	add	x28,x14,x16
   4217c:	ffde8693          	addi	x13,x29,-3
   42180:	00068e93          	addi	x29,x13,0
   42184:	00861693          	slli	x13,x12,0x8
   42188:	01061813          	slli	x16,x12,0x10
   4218c:	40f88f33          	sub	x30,x17,x15
   42190:	00d666b3          	or	x13,x12,x13
   42194:	0106e6b3          	or	x13,x13,x16
   42198:	00f707b3          	add	x15,x14,x15
   4219c:	01861813          	slli	x16,x12,0x18
   421a0:	ffcf7313          	andi	x6,x30,-4
   421a4:	0106e6b3          	or	x13,x13,x16
   421a8:	00678833          	add	x16,x15,x6
   421ac:	00d7a023          	sw	x13,0(x15)
   421b0:	00478793          	addi	x15,x15,4
   421b4:	ff079ce3          	bne	x15,x16,421ac <mini_pad+0x194>
   421b8:	05e30a63          	beq	x6,x30,4220c <mini_pad+0x1f4>
   421bc:	006e07b3          	add	x15,x28,x6
   421c0:	406e8eb3          	sub	x29,x29,x6
   421c4:	0080006f          	jal	x0,421cc <mini_pad+0x1b4>
   421c8:	00070793          	addi	x15,x14,0
   421cc:	00c78023          	sb	x12,0(x15)
   421d0:	00100693          	addi	x13,x0,1
   421d4:	02de8c63          	beq	x29,x13,4220c <mini_pad+0x1f4>
   421d8:	00c780a3          	sb	x12,1(x15)
   421dc:	00200693          	addi	x13,x0,2
   421e0:	02de8663          	beq	x29,x13,4220c <mini_pad+0x1f4>
   421e4:	00c78123          	sb	x12,2(x15)
   421e8:	00300693          	addi	x13,x0,3
   421ec:	02de8063          	beq	x29,x13,4220c <mini_pad+0x1f4>
   421f0:	00c781a3          	sb	x12,3(x15)
   421f4:	00400693          	addi	x13,x0,4
   421f8:	00de8a63          	beq	x29,x13,4220c <mini_pad+0x1f4>
   421fc:	00c78223          	sb	x12,4(x15)
   42200:	00500693          	addi	x13,x0,5
   42204:	00de8463          	beq	x29,x13,4220c <mini_pad+0x1f4>
   42208:	00c782a3          	sb	x12,5(x15)
   4220c:	01170633          	add	x12,x14,x17
   42210:	ecb052e3          	bge	x0,x11,420d4 <mini_pad+0xbc>
   42214:	00000313          	addi	x6,x0,0
   42218:	e11ff06f          	jal	x0,42028 <mini_pad+0x10>
   4221c:	00070e13          	addi	x28,x14,0
   42220:	f65ff06f          	jal	x0,42184 <mini_pad+0x16c>

00042224 <_puts>:
   42224:	06060663          	beq	x12,x0,42290 <_puts+0x6c>
   42228:	00062883          	lw	x17,0(x12)
   4222c:	04b05863          	bge	x0,x11,4227c <_puts+0x58>
   42230:	00b505b3          	add	x11,x10,x11
   42234:	00088793          	addi	x15,x17,0
   42238:	01c0006f          	jal	x0,42254 <_puts+0x30>
   4223c:	01062223          	sw	x16,4(x12)
   42240:	00054783          	lbu	x15,0(x10)
   42244:	00150513          	addi	x10,x10,1
   42248:	00f68023          	sb	x15,0(x13)
   4224c:	02a58863          	beq	x11,x10,4227c <_puts+0x58>
   42250:	00062783          	lw	x15,0(x12)
   42254:	00862703          	lw	x14,8(x12)
   42258:	00462683          	lw	x13,4(x12)
   4225c:	fff70713          	addi	x14,x14,-1
   42260:	00e787b3          	add	x15,x15,x14
   42264:	00168813          	addi	x16,x13,1
   42268:	fcf69ae3          	bne	x13,x15,4223c <_puts+0x18>
   4226c:	00078023          	sb	x0,0(x15)
   42270:	00462583          	lw	x11,4(x12)
   42274:	41158533          	sub	x10,x11,x17
   42278:	00008067          	jalr	x0,0(x1)
   4227c:	00462783          	lw	x15,4(x12)
   42280:	00078023          	sb	x0,0(x15)
   42284:	00462583          	lw	x11,4(x12)
   42288:	41158533          	sub	x10,x11,x17
   4228c:	00008067          	jalr	x0,0(x1)
   42290:	00058513          	addi	x10,x11,0
   42294:	00008067          	jalr	x0,0(x1)

00042298 <mini_vpprintf>:
   42298:	f7010113          	addi	x2,x2,-144
   4229c:	09212023          	sw	x18,128(x2)
   422a0:	07312e23          	sw	x19,124(x2)
   422a4:	07512a23          	sw	x21,116(x2)
   422a8:	07a12023          	sw	x26,96(x2)
   422ac:	00000917          	auipc	x18,0x0
   422b0:	08112623          	sw	x1,140(x2)
   422b4:	08812423          	sw	x8,136(x2)
   422b8:	07912223          	sw	x25,100(x2)
   422bc:	00060d13          	addi	x26,x12,0
   422c0:	00068a93          	addi	x21,x13,0
   422c4:	f7890913          	addi	x18,x18,-136 # 42224 <_puts>
   422c8:	00000993          	addi	x19,x0,0
   422cc:	00050663          	beq	x10,x0,422d8 <mini_vpprintf+0x40>
   422d0:	00050913          	addi	x18,x10,0
   422d4:	00058993          	addi	x19,x11,0
   422d8:	000d4783          	lbu	x15,0(x26)
   422dc:	001d0c93          	addi	x25,x26,1
   422e0:	00f10fa3          	sb	x15,31(x2)
   422e4:	2e078463          	beq	x15,x0,425cc <mini_vpprintf+0x334>
   422e8:	08912223          	sw	x9,132(x2)
   422ec:	07412c23          	sw	x20,120(x2)
   422f0:	07612823          	sw	x22,112(x2)
   422f4:	07712623          	sw	x23,108(x2)
   422f8:	07812423          	sw	x24,104(x2)
   422fc:	05b12e23          	sw	x27,92(x2)
   42300:	00000413          	addi	x8,x0,0
   42304:	02500a13          	addi	x20,x0,37
   42308:	03000b13          	addi	x22,x0,48
   4230c:	06c00b93          	addi	x23,x0,108
   42310:	00900493          	addi	x9,x0,9
   42314:	01800c13          	addi	x24,x0,24
   42318:	07478663          	beq	x15,x20,42384 <mini_vpprintf+0xec>
   4231c:	00098613          	addi	x12,x19,0
   42320:	00100593          	addi	x11,x0,1
   42324:	01f10513          	addi	x10,x2,31
   42328:	000900e7          	jalr	x1,0(x18)
   4232c:	000c8d13          	addi	x26,x25,0
   42330:	000d4783          	lbu	x15,0(x26)
   42334:	00a40433          	add	x8,x8,x10
   42338:	001d0c93          	addi	x25,x26,1
   4233c:	00f10fa3          	sb	x15,31(x2)
   42340:	fc079ce3          	bne	x15,x0,42318 <mini_vpprintf+0x80>
   42344:	08412483          	lw	x9,132(x2)
   42348:	07812a03          	lw	x20,120(x2)
   4234c:	07012b03          	lw	x22,112(x2)
   42350:	06c12b83          	lw	x23,108(x2)
   42354:	06812c03          	lw	x24,104(x2)
   42358:	05c12d83          	lw	x27,92(x2)
   4235c:	08c12083          	lw	x1,140(x2)
   42360:	00040513          	addi	x10,x8,0
   42364:	08812403          	lw	x8,136(x2)
   42368:	08012903          	lw	x18,128(x2)
   4236c:	07c12983          	lw	x19,124(x2)
   42370:	07412a83          	lw	x21,116(x2)
   42374:	06412c83          	lw	x25,100(x2)
   42378:	06012d03          	lw	x26,96(x2)
   4237c:	09010113          	addi	x2,x2,144
   42380:	00008067          	jalr	x0,0(x1)
   42384:	001d4683          	lbu	x13,1(x26)
   42388:	002d0d13          	addi	x26,x26,2
   4238c:	00d10fa3          	sb	x13,31(x2)
   42390:	09668063          	beq	x13,x22,42410 <mini_vpprintf+0x178>
   42394:	fd068713          	addi	x14,x13,-48
   42398:	0ff77793          	andi	x15,x14,255
   4239c:	02000d93          	addi	x27,x0,32
   423a0:	0cf4e663          	bltu	x9,x15,4246c <mini_vpprintf+0x1d4>
   423a4:	00000c93          	addi	x25,x0,0
   423a8:	002c9793          	slli	x15,x25,0x2
   423ac:	000d4683          	lbu	x13,0(x26)
   423b0:	019787b3          	add	x15,x15,x25
   423b4:	00179793          	slli	x15,x15,0x1
   423b8:	00f70cb3          	add	x25,x14,x15
   423bc:	fd068713          	addi	x14,x13,-48
   423c0:	0ff77793          	andi	x15,x14,255
   423c4:	001d0d13          	addi	x26,x26,1
   423c8:	fef4f0e3          	bgeu	x9,x15,423a8 <mini_vpprintf+0x110>
   423cc:	00d10fa3          	sb	x13,31(x2)
   423d0:	000c8813          	addi	x16,x25,0
   423d4:	019c5463          	bge	x24,x25,423dc <mini_vpprintf+0x144>
   423d8:	01800813          	addi	x16,x0,24
   423dc:	05768063          	beq	x13,x23,4241c <mini_vpprintf+0x184>
   423e0:	f60682e3          	beq	x13,x0,42344 <mini_vpprintf+0xac>
   423e4:	fa868613          	addi	x12,x13,-88
   423e8:	0ff67793          	andi	x15,x12,255
   423ec:	02000713          	addi	x14,x0,32
   423f0:	06f76463          	bltu	x14,x15,42458 <mini_vpprintf+0x1c0>
   423f4:	00001717          	auipc	x14,0x1
   423f8:	6f070713          	addi	x14,x14,1776 # 43ae4 <__clz_tab+0x6cc>
   423fc:	00279793          	slli	x15,x15,0x2
   42400:	00e787b3          	add	x15,x15,x14
   42404:	0007a783          	lw	x15,0(x15)
   42408:	00e787b3          	add	x15,x15,x14
   4240c:	00078067          	jalr	x0,0(x15)
   42410:	000b0d93          	addi	x27,x22,0
   42414:	00000713          	addi	x14,x0,0
   42418:	f8dff06f          	jal	x0,423a4 <mini_vpprintf+0x10c>
   4241c:	000d4703          	lbu	x14,0(x26)
   42420:	001d0d13          	addi	x26,x26,1
   42424:	00e10fa3          	sb	x14,31(x2)
   42428:	f0070ee3          	beq	x14,x0,42344 <mini_vpprintf+0xac>
   4242c:	fa870613          	addi	x12,x14,-88
   42430:	0ff67793          	andi	x15,x12,255
   42434:	02000693          	addi	x13,x0,32
   42438:	02f6e063          	bltu	x13,x15,42458 <mini_vpprintf+0x1c0>
   4243c:	00001697          	auipc	x13,0x1
   42440:	72c68693          	addi	x13,x13,1836 # 43b68 <__clz_tab+0x750>
   42444:	00279793          	slli	x15,x15,0x2
   42448:	00d787b3          	add	x15,x15,x13
   4244c:	0007a783          	lw	x15,0(x15)
   42450:	00d787b3          	add	x15,x15,x13
   42454:	00078067          	jalr	x0,0(x15)
   42458:	00098613          	addi	x12,x19,0
   4245c:	00100593          	addi	x11,x0,1
   42460:	01f10513          	addi	x10,x2,31
   42464:	000900e7          	jalr	x1,0(x18)
   42468:	ec9ff06f          	jal	x0,42330 <mini_vpprintf+0x98>
   4246c:	00000813          	addi	x16,x0,0
   42470:	00000c93          	addi	x25,x0,0
   42474:	f69ff06f          	jal	x0,423dc <mini_vpprintf+0x144>
   42478:	01012423          	sw	x16,8(x2)
   4247c:	000aa503          	lw	x10,0(x21)
   42480:	03810c93          	addi	x25,x2,56
   42484:	01000593          	addi	x11,x0,16
   42488:	00163613          	sltiu	x12,x12,1
   4248c:	000c8713          	addi	x14,x25,0
   42490:	00100693          	addi	x13,x0,1
   42494:	a1dff0ef          	jal	x1,41eb0 <mini_itoa>
   42498:	00812803          	lw	x16,8(x2)
   4249c:	004a8a93          	addi	x21,x21,4
   424a0:	00050593          	addi	x11,x10,0
   424a4:	00080693          	addi	x13,x16,0
   424a8:	000d8613          	addi	x12,x27,0
   424ac:	000c8513          	addi	x10,x25,0
   424b0:	02010713          	addi	x14,x2,32
   424b4:	b65ff0ef          	jal	x1,42018 <mini_pad>
   424b8:	00050593          	addi	x11,x10,0
   424bc:	00098613          	addi	x12,x19,0
   424c0:	02010513          	addi	x10,x2,32
   424c4:	000900e7          	jalr	x1,0(x18)
   424c8:	e69ff06f          	jal	x0,42330 <mini_vpprintf+0x98>
   424cc:	07500713          	addi	x14,x0,117
   424d0:	004a8793          	addi	x15,x21,4
   424d4:	0ae68463          	beq	x13,x14,4257c <mini_vpprintf+0x2e4>
   424d8:	000aa503          	lw	x10,0(x21)
   424dc:	03810c93          	addi	x25,x2,56
   424e0:	01012623          	sw	x16,12(x2)
   424e4:	00f12423          	sw	x15,8(x2)
   424e8:	000c8713          	addi	x14,x25,0
   424ec:	00000693          	addi	x13,x0,0
   424f0:	00a00593          	addi	x11,x0,10
   424f4:	00000613          	addi	x12,x0,0
   424f8:	9b9ff0ef          	jal	x1,41eb0 <mini_itoa>
   424fc:	00812783          	lw	x15,8(x2)
   42500:	00c12803          	lw	x16,12(x2)
   42504:	00050593          	addi	x11,x10,0
   42508:	00078a93          	addi	x21,x15,0
   4250c:	f99ff06f          	jal	x0,424a4 <mini_vpprintf+0x20c>
   42510:	000aa783          	lw	x15,0(x21)
   42514:	01012623          	sw	x16,12(x2)
   42518:	004a8a93          	addi	x21,x21,4
   4251c:	00078513          	addi	x10,x15,0
   42520:	00f12423          	sw	x15,8(x2)
   42524:	965ff0ef          	jal	x1,41e88 <mini_strlen>
   42528:	00812783          	lw	x15,8(x2)
   4252c:	00050593          	addi	x11,x10,0
   42530:	03904c63          	blt	x0,x25,42568 <mini_vpprintf+0x2d0>
   42534:	00078513          	addi	x10,x15,0
   42538:	00098613          	addi	x12,x19,0
   4253c:	000900e7          	jalr	x1,0(x18)
   42540:	df1ff06f          	jal	x0,42330 <mini_vpprintf+0x98>
   42544:	000aa783          	lw	x15,0(x21)
   42548:	00080693          	addi	x13,x16,0
   4254c:	000d8613          	addi	x12,x27,0
   42550:	02010713          	addi	x14,x2,32
   42554:	00100593          	addi	x11,x0,1
   42558:	01f10513          	addi	x10,x2,31
   4255c:	00f10fa3          	sb	x15,31(x2)
   42560:	004a8a93          	addi	x21,x21,4
   42564:	f51ff06f          	jal	x0,424b4 <mini_vpprintf+0x21c>
   42568:	00c12803          	lw	x16,12(x2)
   4256c:	000d8613          	addi	x12,x27,0
   42570:	00078513          	addi	x10,x15,0
   42574:	00080693          	addi	x13,x16,0
   42578:	f39ff06f          	jal	x0,424b0 <mini_vpprintf+0x218>
   4257c:	03810c93          	addi	x25,x2,56
   42580:	000aa503          	lw	x10,0(x21)
   42584:	01012623          	sw	x16,12(x2)
   42588:	00f12423          	sw	x15,8(x2)
   4258c:	000c8713          	addi	x14,x25,0
   42590:	00100693          	addi	x13,x0,1
   42594:	f5dff06f          	jal	x0,424f0 <mini_vpprintf+0x258>
   42598:	000aa503          	lw	x10,0(x21)
   4259c:	f8b70693          	addi	x13,x14,-117
   425a0:	03810c93          	addi	x25,x2,56
   425a4:	00a00593          	addi	x11,x0,10
   425a8:	0016b693          	sltiu	x13,x13,1
   425ac:	000c8713          	addi	x14,x25,0
   425b0:	00000613          	addi	x12,x0,0
   425b4:	01012423          	sw	x16,8(x2)
   425b8:	8f9ff0ef          	jal	x1,41eb0 <mini_itoa>
   425bc:	00812803          	lw	x16,8(x2)
   425c0:	004a8a93          	addi	x21,x21,4
   425c4:	00050593          	addi	x11,x10,0
   425c8:	eddff06f          	jal	x0,424a4 <mini_vpprintf+0x20c>
   425cc:	00000413          	addi	x8,x0,0
   425d0:	d8dff06f          	jal	x0,4235c <mini_vpprintf+0xc4>

000425d4 <_sbrk>:
   425d4:	8401a703          	lw	x14,-1984(x3) # 44158 <heap.0>
   425d8:	00070c63          	beq	x14,x0,425f0 <_sbrk+0x1c>
   425dc:	00251793          	slli	x15,x10,0x2
   425e0:	00f707b3          	add	x15,x14,x15
   425e4:	00070513          	addi	x10,x14,0
   425e8:	84f1a023          	sw	x15,-1984(x3) # 44158 <heap.0>
   425ec:	00008067          	jalr	x0,0(x1)
   425f0:	00004717          	auipc	x14,0x4
   425f4:	4b470713          	addi	x14,x14,1204 # 46aa4 <__BSS_END__>
   425f8:	fe5ff06f          	jal	x0,425dc <_sbrk+0x8>

000425fc <malloc>:
   425fc:	00050593          	addi	x11,x10,0
   42600:	8101a503          	lw	x10,-2032(x3) # 44128 <_impure_ptr>
   42604:	0040006f          	jal	x0,42608 <_malloc_r>

00042608 <_malloc_r>:
   42608:	fd010113          	addi	x2,x2,-48
   4260c:	01312e23          	sw	x19,28(x2)
   42610:	02112623          	sw	x1,44(x2)
   42614:	02812423          	sw	x8,40(x2)
   42618:	02912223          	sw	x9,36(x2)
   4261c:	03212023          	sw	x18,32(x2)
   42620:	00b58793          	addi	x15,x11,11
   42624:	01600713          	addi	x14,x0,22
   42628:	00050993          	addi	x19,x10,0
   4262c:	08f76063          	bltu	x14,x15,426ac <_malloc_r+0xa4>
   42630:	01000493          	addi	x9,x0,16
   42634:	20b4e463          	bltu	x9,x11,4283c <_malloc_r+0x234>
   42638:	7e0000ef          	jal	x1,42e18 <__malloc_lock>
   4263c:	01800793          	addi	x15,x0,24
   42640:	00200593          	addi	x11,x0,2
   42644:	00044937          	lui	x18,0x44
   42648:	bf090913          	addi	x18,x18,-1040 # 43bf0 <__malloc_av_>
   4264c:	00f907b3          	add	x15,x18,x15
   42650:	0047a403          	lw	x8,4(x15)
   42654:	ff878713          	addi	x14,x15,-8
   42658:	44e40863          	beq	x8,x14,42aa8 <_malloc_r+0x4a0>
   4265c:	00442783          	lw	x15,4(x8)
   42660:	00c42683          	lw	x13,12(x8)
   42664:	00842603          	lw	x12,8(x8)
   42668:	ffc7f793          	andi	x15,x15,-4
   4266c:	00f407b3          	add	x15,x8,x15
   42670:	0047a703          	lw	x14,4(x15)
   42674:	00d62623          	sw	x13,12(x12)
   42678:	00c6a423          	sw	x12,8(x13)
   4267c:	00176713          	ori	x14,x14,1
   42680:	00098513          	addi	x10,x19,0
   42684:	00e7a223          	sw	x14,4(x15)
   42688:	794000ef          	jal	x1,42e1c <__malloc_unlock>
   4268c:	02c12083          	lw	x1,44(x2)
   42690:	00840513          	addi	x10,x8,8
   42694:	02812403          	lw	x8,40(x2)
   42698:	02412483          	lw	x9,36(x2)
   4269c:	02012903          	lw	x18,32(x2)
   426a0:	01c12983          	lw	x19,28(x2)
   426a4:	03010113          	addi	x2,x2,48
   426a8:	00008067          	jalr	x0,0(x1)
   426ac:	ff87f493          	andi	x9,x15,-8
   426b0:	1807c663          	blt	x15,x0,4283c <_malloc_r+0x234>
   426b4:	18b4e463          	bltu	x9,x11,4283c <_malloc_r+0x234>
   426b8:	760000ef          	jal	x1,42e18 <__malloc_lock>
   426bc:	1f700793          	addi	x15,x0,503
   426c0:	4e97fe63          	bgeu	x15,x9,42bbc <_malloc_r+0x5b4>
   426c4:	0094d793          	srli	x15,x9,0x9
   426c8:	18078e63          	beq	x15,x0,42864 <_malloc_r+0x25c>
   426cc:	00400713          	addi	x14,x0,4
   426d0:	44f76463          	bltu	x14,x15,42b18 <_malloc_r+0x510>
   426d4:	0064d793          	srli	x15,x9,0x6
   426d8:	03978593          	addi	x11,x15,57
   426dc:	03878813          	addi	x16,x15,56
   426e0:	00359613          	slli	x12,x11,0x3
   426e4:	00044937          	lui	x18,0x44
   426e8:	bf090913          	addi	x18,x18,-1040 # 43bf0 <__malloc_av_>
   426ec:	00c90633          	add	x12,x18,x12
   426f0:	00462403          	lw	x8,4(x12)
   426f4:	ff860613          	addi	x12,x12,-8
   426f8:	02860863          	beq	x12,x8,42728 <_malloc_r+0x120>
   426fc:	00f00513          	addi	x10,x0,15
   42700:	0140006f          	jal	x0,42714 <_malloc_r+0x10c>
   42704:	00c42683          	lw	x13,12(x8)
   42708:	34075e63          	bge	x14,x0,42a64 <_malloc_r+0x45c>
   4270c:	00d60e63          	beq	x12,x13,42728 <_malloc_r+0x120>
   42710:	00068413          	addi	x8,x13,0
   42714:	00442783          	lw	x15,4(x8)
   42718:	ffc7f793          	andi	x15,x15,-4
   4271c:	40978733          	sub	x14,x15,x9
   42720:	fee552e3          	bge	x10,x14,42704 <_malloc_r+0xfc>
   42724:	00080593          	addi	x11,x16,0
   42728:	01092403          	lw	x8,16(x18)
   4272c:	00044837          	lui	x16,0x44
   42730:	bf880813          	addi	x16,x16,-1032 # 43bf8 <__malloc_av_+0x8>
   42734:	2b040863          	beq	x8,x16,429e4 <_malloc_r+0x3dc>
   42738:	00442783          	lw	x15,4(x8)
   4273c:	00f00693          	addi	x13,x0,15
   42740:	ffc7f793          	andi	x15,x15,-4
   42744:	40978733          	sub	x14,x15,x9
   42748:	48e6c063          	blt	x13,x14,42bc8 <_malloc_r+0x5c0>
   4274c:	01092a23          	sw	x16,20(x18)
   42750:	01092823          	sw	x16,16(x18)
   42754:	44075463          	bge	x14,x0,42b9c <_malloc_r+0x594>
   42758:	1ff00713          	addi	x14,x0,511
   4275c:	00492503          	lw	x10,4(x18)
   42760:	34f76c63          	bltu	x14,x15,42ab8 <_malloc_r+0x4b0>
   42764:	ff87f713          	andi	x14,x15,-8
   42768:	00870713          	addi	x14,x14,8
   4276c:	00e90733          	add	x14,x18,x14
   42770:	00072683          	lw	x13,0(x14)
   42774:	0057d613          	srli	x12,x15,0x5
   42778:	00100793          	addi	x15,x0,1
   4277c:	00c797b3          	sll	x15,x15,x12
   42780:	00f56533          	or	x10,x10,x15
   42784:	ff870793          	addi	x15,x14,-8
   42788:	00d42423          	sw	x13,8(x8)
   4278c:	00f42623          	sw	x15,12(x8)
   42790:	00a92223          	sw	x10,4(x18)
   42794:	00872023          	sw	x8,0(x14)
   42798:	0086a623          	sw	x8,12(x13)
   4279c:	4025d793          	srai	x15,x11,0x2
   427a0:	00100613          	addi	x12,x0,1
   427a4:	00f61633          	sll	x12,x12,x15
   427a8:	0cc56663          	bltu	x10,x12,42874 <_malloc_r+0x26c>
   427ac:	00a677b3          	and	x15,x12,x10
   427b0:	02079463          	bne	x15,x0,427d8 <_malloc_r+0x1d0>
   427b4:	00161613          	slli	x12,x12,0x1
   427b8:	ffc5f593          	andi	x11,x11,-4
   427bc:	00a677b3          	and	x15,x12,x10
   427c0:	00458593          	addi	x11,x11,4
   427c4:	00079a63          	bne	x15,x0,427d8 <_malloc_r+0x1d0>
   427c8:	00161613          	slli	x12,x12,0x1
   427cc:	00a677b3          	and	x15,x12,x10
   427d0:	00458593          	addi	x11,x11,4
   427d4:	fe078ae3          	beq	x15,x0,427c8 <_malloc_r+0x1c0>
   427d8:	00f00893          	addi	x17,x0,15
   427dc:	00359313          	slli	x6,x11,0x3
   427e0:	00690333          	add	x6,x18,x6
   427e4:	00030513          	addi	x10,x6,0
   427e8:	00c52783          	lw	x15,12(x10)
   427ec:	00058e13          	addi	x28,x11,0
   427f0:	34f50663          	beq	x10,x15,42b3c <_malloc_r+0x534>
   427f4:	0047a703          	lw	x14,4(x15)
   427f8:	00078413          	addi	x8,x15,0
   427fc:	00c7a783          	lw	x15,12(x15)
   42800:	ffc77713          	andi	x14,x14,-4
   42804:	409706b3          	sub	x13,x14,x9
   42808:	34d8c663          	blt	x17,x13,42b54 <_malloc_r+0x54c>
   4280c:	fe06c2e3          	blt	x13,x0,427f0 <_malloc_r+0x1e8>
   42810:	00e40733          	add	x14,x8,x14
   42814:	00472683          	lw	x13,4(x14)
   42818:	00842603          	lw	x12,8(x8)
   4281c:	00098513          	addi	x10,x19,0
   42820:	0016e693          	ori	x13,x13,1
   42824:	00d72223          	sw	x13,4(x14)
   42828:	00f62623          	sw	x15,12(x12)
   4282c:	00c7a423          	sw	x12,8(x15)
   42830:	5ec000ef          	jal	x1,42e1c <__malloc_unlock>
   42834:	00840513          	addi	x10,x8,8
   42838:	0100006f          	jal	x0,42848 <_malloc_r+0x240>
   4283c:	00c00793          	addi	x15,x0,12
   42840:	00f9a023          	sw	x15,0(x19)
   42844:	00000513          	addi	x10,x0,0
   42848:	02c12083          	lw	x1,44(x2)
   4284c:	02812403          	lw	x8,40(x2)
   42850:	02412483          	lw	x9,36(x2)
   42854:	02012903          	lw	x18,32(x2)
   42858:	01c12983          	lw	x19,28(x2)
   4285c:	03010113          	addi	x2,x2,48
   42860:	00008067          	jalr	x0,0(x1)
   42864:	20000613          	addi	x12,x0,512
   42868:	04000593          	addi	x11,x0,64
   4286c:	03f00813          	addi	x16,x0,63
   42870:	e75ff06f          	jal	x0,426e4 <_malloc_r+0xdc>
   42874:	00892403          	lw	x8,8(x18)
   42878:	01612823          	sw	x22,16(x2)
   4287c:	00442783          	lw	x15,4(x8)
   42880:	ffc7fb13          	andi	x22,x15,-4
   42884:	009b6863          	bltu	x22,x9,42894 <_malloc_r+0x28c>
   42888:	409b0733          	sub	x14,x22,x9
   4288c:	00f00793          	addi	x15,x0,15
   42890:	18e7c863          	blt	x15,x14,42a20 <_malloc_r+0x418>
   42894:	01912223          	sw	x25,4(x2)
   42898:	01512a23          	sw	x21,20(x2)
   4289c:	8081a703          	lw	x14,-2040(x3) # 44120 <__malloc_sbrk_base>
   428a0:	84c1aa83          	lw	x21,-1972(x3) # 44164 <__malloc_top_pad>
   428a4:	01412c23          	sw	x20,24(x2)
   428a8:	01712623          	sw	x23,12(x2)
   428ac:	fff00793          	addi	x15,x0,-1
   428b0:	01548ab3          	add	x21,x9,x21
   428b4:	01640a33          	add	x20,x8,x22
   428b8:	3cf70e63          	beq	x14,x15,42c94 <_malloc_r+0x68c>
   428bc:	000017b7          	lui	x15,0x1
   428c0:	00f78793          	addi	x15,x15,15 # 100f <_start-0x3eff1>
   428c4:	00fa8ab3          	add	x21,x21,x15
   428c8:	fffff7b7          	lui	x15,0xfffff
   428cc:	00fafab3          	and	x21,x21,x15
   428d0:	000a8593          	addi	x11,x21,0
   428d4:	00098513          	addi	x10,x19,0
   428d8:	548000ef          	jal	x1,42e20 <_sbrk_r>
   428dc:	fff00793          	addi	x15,x0,-1
   428e0:	00050b93          	addi	x23,x10,0
   428e4:	46f50c63          	beq	x10,x15,42d5c <_malloc_r+0x754>
   428e8:	01812423          	sw	x24,8(x2)
   428ec:	11456063          	bltu	x10,x20,429ec <_malloc_r+0x3e4>
   428f0:	00047c37          	lui	x24,0x47
   428f4:	944c0c13          	addi	x24,x24,-1724 # 46944 <__malloc_current_mallinfo>
   428f8:	000c2583          	lw	x11,0(x24)
   428fc:	00ba85b3          	add	x11,x21,x11
   42900:	00bc2023          	sw	x11,0(x24)
   42904:	00058713          	addi	x14,x11,0
   42908:	46aa0063          	beq	x20,x10,42d68 <_malloc_r+0x760>
   4290c:	8081a683          	lw	x13,-2040(x3) # 44120 <__malloc_sbrk_base>
   42910:	fff00793          	addi	x15,x0,-1
   42914:	46f68863          	beq	x13,x15,42d84 <_malloc_r+0x77c>
   42918:	414b87b3          	sub	x15,x23,x20
   4291c:	00e787b3          	add	x15,x15,x14
   42920:	00fc2023          	sw	x15,0(x24)
   42924:	007bfc93          	andi	x25,x23,7
   42928:	380c8663          	beq	x25,x0,42cb4 <_malloc_r+0x6ac>
   4292c:	419b8bb3          	sub	x23,x23,x25
   42930:	000015b7          	lui	x11,0x1
   42934:	008b8b93          	addi	x23,x23,8
   42938:	00858593          	addi	x11,x11,8 # 1008 <_start-0x3eff8>
   4293c:	015b8ab3          	add	x21,x23,x21
   42940:	419585b3          	sub	x11,x11,x25
   42944:	415585b3          	sub	x11,x11,x21
   42948:	01459593          	slli	x11,x11,0x14
   4294c:	0145da13          	srli	x20,x11,0x14
   42950:	000a0593          	addi	x11,x20,0
   42954:	00098513          	addi	x10,x19,0
   42958:	4c8000ef          	jal	x1,42e20 <_sbrk_r>
   4295c:	fff00793          	addi	x15,x0,-1
   42960:	46f50263          	beq	x10,x15,42dc4 <_malloc_r+0x7bc>
   42964:	41750533          	sub	x10,x10,x23
   42968:	01450ab3          	add	x21,x10,x20
   4296c:	000c2703          	lw	x14,0(x24)
   42970:	01792423          	sw	x23,8(x18)
   42974:	001ae793          	ori	x15,x21,1
   42978:	00ea05b3          	add	x11,x20,x14
   4297c:	00fba223          	sw	x15,4(x23)
   42980:	00bc2023          	sw	x11,0(x24)
   42984:	03240e63          	beq	x8,x18,429c0 <_malloc_r+0x3b8>
   42988:	00f00693          	addi	x13,x0,15
   4298c:	3566fa63          	bgeu	x13,x22,42ce0 <_malloc_r+0x6d8>
   42990:	00442703          	lw	x14,4(x8)
   42994:	ff4b0793          	addi	x15,x22,-12
   42998:	ff87f793          	andi	x15,x15,-8
   4299c:	00177713          	andi	x14,x14,1
   429a0:	00f76733          	or	x14,x14,x15
   429a4:	00e42223          	sw	x14,4(x8)
   429a8:	00500613          	addi	x12,x0,5
   429ac:	00f40733          	add	x14,x8,x15
   429b0:	00c72223          	sw	x12,4(x14)
   429b4:	00c72423          	sw	x12,8(x14)
   429b8:	2cf6e263          	bltu	x13,x15,42c7c <_malloc_r+0x674>
   429bc:	004ba783          	lw	x15,4(x23)
   429c0:	8481a683          	lw	x13,-1976(x3) # 44160 <__malloc_max_sbrked_mem>
   429c4:	00b6f463          	bgeu	x13,x11,429cc <_malloc_r+0x3c4>
   429c8:	84b1a423          	sw	x11,-1976(x3) # 44160 <__malloc_max_sbrked_mem>
   429cc:	8441a683          	lw	x13,-1980(x3) # 4415c <__malloc_max_total_mem>
   429d0:	00b6f463          	bgeu	x13,x11,429d8 <_malloc_r+0x3d0>
   429d4:	84b1a223          	sw	x11,-1980(x3) # 4415c <__malloc_max_total_mem>
   429d8:	00812c03          	lw	x24,8(x2)
   429dc:	000b8413          	addi	x8,x23,0
   429e0:	01c0006f          	jal	x0,429fc <_malloc_r+0x3f4>
   429e4:	00492503          	lw	x10,4(x18)
   429e8:	db5ff06f          	jal	x0,4279c <_malloc_r+0x194>
   429ec:	35240c63          	beq	x8,x18,42d44 <_malloc_r+0x73c>
   429f0:	00892403          	lw	x8,8(x18)
   429f4:	00812c03          	lw	x24,8(x2)
   429f8:	00442783          	lw	x15,4(x8)
   429fc:	ffc7f793          	andi	x15,x15,-4
   42a00:	40978733          	sub	x14,x15,x9
   42a04:	2e97e463          	bltu	x15,x9,42cec <_malloc_r+0x6e4>
   42a08:	00f00793          	addi	x15,x0,15
   42a0c:	2ee7d063          	bge	x15,x14,42cec <_malloc_r+0x6e4>
   42a10:	01812a03          	lw	x20,24(x2)
   42a14:	01412a83          	lw	x21,20(x2)
   42a18:	00c12b83          	lw	x23,12(x2)
   42a1c:	00412c83          	lw	x25,4(x2)
   42a20:	0014e793          	ori	x15,x9,1
   42a24:	00f42223          	sw	x15,4(x8)
   42a28:	009404b3          	add	x9,x8,x9
   42a2c:	00992423          	sw	x9,8(x18)
   42a30:	00176713          	ori	x14,x14,1
   42a34:	00098513          	addi	x10,x19,0
   42a38:	00e4a223          	sw	x14,4(x9)
   42a3c:	3e0000ef          	jal	x1,42e1c <__malloc_unlock>
   42a40:	02c12083          	lw	x1,44(x2)
   42a44:	00840513          	addi	x10,x8,8
   42a48:	02812403          	lw	x8,40(x2)
   42a4c:	01012b03          	lw	x22,16(x2)
   42a50:	02412483          	lw	x9,36(x2)
   42a54:	02012903          	lw	x18,32(x2)
   42a58:	01c12983          	lw	x19,28(x2)
   42a5c:	03010113          	addi	x2,x2,48
   42a60:	00008067          	jalr	x0,0(x1)
   42a64:	00842603          	lw	x12,8(x8)
   42a68:	00f407b3          	add	x15,x8,x15
   42a6c:	0047a703          	lw	x14,4(x15) # fffff004 <__stack_top+0xfffaf004>
   42a70:	00d62623          	sw	x13,12(x12)
   42a74:	00c6a423          	sw	x12,8(x13)
   42a78:	00176713          	ori	x14,x14,1
   42a7c:	00098513          	addi	x10,x19,0
   42a80:	00e7a223          	sw	x14,4(x15)
   42a84:	398000ef          	jal	x1,42e1c <__malloc_unlock>
   42a88:	02c12083          	lw	x1,44(x2)
   42a8c:	00840513          	addi	x10,x8,8
   42a90:	02812403          	lw	x8,40(x2)
   42a94:	02412483          	lw	x9,36(x2)
   42a98:	02012903          	lw	x18,32(x2)
   42a9c:	01c12983          	lw	x19,28(x2)
   42aa0:	03010113          	addi	x2,x2,48
   42aa4:	00008067          	jalr	x0,0(x1)
   42aa8:	00c7a403          	lw	x8,12(x15)
   42aac:	00258593          	addi	x11,x11,2
   42ab0:	c6878ce3          	beq	x15,x8,42728 <_malloc_r+0x120>
   42ab4:	ba9ff06f          	jal	x0,4265c <_malloc_r+0x54>
   42ab8:	0097d713          	srli	x14,x15,0x9
   42abc:	00400693          	addi	x13,x0,4
   42ac0:	14e6f263          	bgeu	x13,x14,42c04 <_malloc_r+0x5fc>
   42ac4:	01400693          	addi	x13,x0,20
   42ac8:	24e6e263          	bltu	x13,x14,42d0c <_malloc_r+0x704>
   42acc:	05c70613          	addi	x12,x14,92
   42ad0:	00361613          	slli	x12,x12,0x3
   42ad4:	05b70693          	addi	x13,x14,91
   42ad8:	00c90633          	add	x12,x18,x12
   42adc:	00062703          	lw	x14,0(x12)
   42ae0:	ff860613          	addi	x12,x12,-8
   42ae4:	00e61863          	bne	x12,x14,42af4 <_malloc_r+0x4ec>
   42ae8:	1b40006f          	jal	x0,42c9c <_malloc_r+0x694>
   42aec:	00872703          	lw	x14,8(x14)
   42af0:	00e60863          	beq	x12,x14,42b00 <_malloc_r+0x4f8>
   42af4:	00472683          	lw	x13,4(x14)
   42af8:	ffc6f693          	andi	x13,x13,-4
   42afc:	fed7e8e3          	bltu	x15,x13,42aec <_malloc_r+0x4e4>
   42b00:	00c72603          	lw	x12,12(x14)
   42b04:	00c42623          	sw	x12,12(x8)
   42b08:	00e42423          	sw	x14,8(x8)
   42b0c:	00862423          	sw	x8,8(x12)
   42b10:	00872623          	sw	x8,12(x14)
   42b14:	c89ff06f          	jal	x0,4279c <_malloc_r+0x194>
   42b18:	01400713          	addi	x14,x0,20
   42b1c:	0ef77e63          	bgeu	x14,x15,42c18 <_malloc_r+0x610>
   42b20:	05400713          	addi	x14,x0,84
   42b24:	20f76263          	bltu	x14,x15,42d28 <_malloc_r+0x720>
   42b28:	00c4d793          	srli	x15,x9,0xc
   42b2c:	06f78593          	addi	x11,x15,111
   42b30:	06e78813          	addi	x16,x15,110
   42b34:	00359613          	slli	x12,x11,0x3
   42b38:	badff06f          	jal	x0,426e4 <_malloc_r+0xdc>
   42b3c:	001e0e13          	addi	x28,x28,1
   42b40:	003e7793          	andi	x15,x28,3
   42b44:	00850513          	addi	x10,x10,8
   42b48:	0e078663          	beq	x15,x0,42c34 <_malloc_r+0x62c>
   42b4c:	00c52783          	lw	x15,12(x10)
   42b50:	ca1ff06f          	jal	x0,427f0 <_malloc_r+0x1e8>
   42b54:	00842603          	lw	x12,8(x8)
   42b58:	0014e593          	ori	x11,x9,1
   42b5c:	00b42223          	sw	x11,4(x8)
   42b60:	00f62623          	sw	x15,12(x12)
   42b64:	00c7a423          	sw	x12,8(x15)
   42b68:	009404b3          	add	x9,x8,x9
   42b6c:	00992a23          	sw	x9,20(x18)
   42b70:	00992823          	sw	x9,16(x18)
   42b74:	0016e793          	ori	x15,x13,1
   42b78:	00e40733          	add	x14,x8,x14
   42b7c:	0104a623          	sw	x16,12(x9)
   42b80:	0104a423          	sw	x16,8(x9)
   42b84:	00f4a223          	sw	x15,4(x9)
   42b88:	00098513          	addi	x10,x19,0
   42b8c:	00d72023          	sw	x13,0(x14)
   42b90:	28c000ef          	jal	x1,42e1c <__malloc_unlock>
   42b94:	00840513          	addi	x10,x8,8
   42b98:	cb1ff06f          	jal	x0,42848 <_malloc_r+0x240>
   42b9c:	00f407b3          	add	x15,x8,x15
   42ba0:	0047a703          	lw	x14,4(x15)
   42ba4:	00098513          	addi	x10,x19,0
   42ba8:	00176713          	ori	x14,x14,1
   42bac:	00e7a223          	sw	x14,4(x15)
   42bb0:	26c000ef          	jal	x1,42e1c <__malloc_unlock>
   42bb4:	00840513          	addi	x10,x8,8
   42bb8:	c91ff06f          	jal	x0,42848 <_malloc_r+0x240>
   42bbc:	0034d593          	srli	x11,x9,0x3
   42bc0:	00848793          	addi	x15,x9,8
   42bc4:	a81ff06f          	jal	x0,42644 <_malloc_r+0x3c>
   42bc8:	0014e693          	ori	x13,x9,1
   42bcc:	00d42223          	sw	x13,4(x8)
   42bd0:	009404b3          	add	x9,x8,x9
   42bd4:	00992a23          	sw	x9,20(x18)
   42bd8:	00992823          	sw	x9,16(x18)
   42bdc:	00176693          	ori	x13,x14,1
   42be0:	00f407b3          	add	x15,x8,x15
   42be4:	0104a623          	sw	x16,12(x9)
   42be8:	0104a423          	sw	x16,8(x9)
   42bec:	00d4a223          	sw	x13,4(x9)
   42bf0:	00098513          	addi	x10,x19,0
   42bf4:	00e7a023          	sw	x14,0(x15)
   42bf8:	224000ef          	jal	x1,42e1c <__malloc_unlock>
   42bfc:	00840513          	addi	x10,x8,8
   42c00:	c49ff06f          	jal	x0,42848 <_malloc_r+0x240>
   42c04:	0067d713          	srli	x14,x15,0x6
   42c08:	03970613          	addi	x12,x14,57
   42c0c:	00361613          	slli	x12,x12,0x3
   42c10:	03870693          	addi	x13,x14,56
   42c14:	ec5ff06f          	jal	x0,42ad8 <_malloc_r+0x4d0>
   42c18:	05c78593          	addi	x11,x15,92
   42c1c:	05b78813          	addi	x16,x15,91
   42c20:	00359613          	slli	x12,x11,0x3
   42c24:	ac1ff06f          	jal	x0,426e4 <_malloc_r+0xdc>
   42c28:	00832783          	lw	x15,8(x6)
   42c2c:	fff58593          	addi	x11,x11,-1
   42c30:	1e679063          	bne	x15,x6,42e10 <_malloc_r+0x808>
   42c34:	0035f793          	andi	x15,x11,3
   42c38:	ff830313          	addi	x6,x6,-8
   42c3c:	fe0796e3          	bne	x15,x0,42c28 <_malloc_r+0x620>
   42c40:	00492703          	lw	x14,4(x18)
   42c44:	fff64793          	xori	x15,x12,-1
   42c48:	00e7f7b3          	and	x15,x15,x14
   42c4c:	00f92223          	sw	x15,4(x18)
   42c50:	00161613          	slli	x12,x12,0x1
   42c54:	c2c7e0e3          	bltu	x15,x12,42874 <_malloc_r+0x26c>
   42c58:	c0060ee3          	beq	x12,x0,42874 <_malloc_r+0x26c>
   42c5c:	00f67733          	and	x14,x12,x15
   42c60:	00071a63          	bne	x14,x0,42c74 <_malloc_r+0x66c>
   42c64:	00161613          	slli	x12,x12,0x1
   42c68:	00f67733          	and	x14,x12,x15
   42c6c:	004e0e13          	addi	x28,x28,4
   42c70:	fe070ae3          	beq	x14,x0,42c64 <_malloc_r+0x65c>
   42c74:	000e0593          	addi	x11,x28,0
   42c78:	b65ff06f          	jal	x0,427dc <_malloc_r+0x1d4>
   42c7c:	00840593          	addi	x11,x8,8
   42c80:	00098513          	addi	x10,x19,0
   42c84:	468000ef          	jal	x1,430ec <_free_r>
   42c88:	000c2583          	lw	x11,0(x24)
   42c8c:	00892b83          	lw	x23,8(x18)
   42c90:	d2dff06f          	jal	x0,429bc <_malloc_r+0x3b4>
   42c94:	010a8a93          	addi	x21,x21,16
   42c98:	c39ff06f          	jal	x0,428d0 <_malloc_r+0x2c8>
   42c9c:	4026d693          	srai	x13,x13,0x2
   42ca0:	00100793          	addi	x15,x0,1
   42ca4:	00d797b3          	sll	x15,x15,x13
   42ca8:	00f56533          	or	x10,x10,x15
   42cac:	00a92223          	sw	x10,4(x18)
   42cb0:	e55ff06f          	jal	x0,42b04 <_malloc_r+0x4fc>
   42cb4:	015b85b3          	add	x11,x23,x21
   42cb8:	40b005b3          	sub	x11,x0,x11
   42cbc:	01459593          	slli	x11,x11,0x14
   42cc0:	0145da13          	srli	x20,x11,0x14
   42cc4:	000a0593          	addi	x11,x20,0
   42cc8:	00098513          	addi	x10,x19,0
   42ccc:	154000ef          	jal	x1,42e20 <_sbrk_r>
   42cd0:	fff00793          	addi	x15,x0,-1
   42cd4:	c8f518e3          	bne	x10,x15,42964 <_malloc_r+0x35c>
   42cd8:	00000a13          	addi	x20,x0,0
   42cdc:	c91ff06f          	jal	x0,4296c <_malloc_r+0x364>
   42ce0:	00812c03          	lw	x24,8(x2)
   42ce4:	00100793          	addi	x15,x0,1
   42ce8:	00fba223          	sw	x15,4(x23)
   42cec:	00098513          	addi	x10,x19,0
   42cf0:	12c000ef          	jal	x1,42e1c <__malloc_unlock>
   42cf4:	01812a03          	lw	x20,24(x2)
   42cf8:	01412a83          	lw	x21,20(x2)
   42cfc:	01012b03          	lw	x22,16(x2)
   42d00:	00c12b83          	lw	x23,12(x2)
   42d04:	00412c83          	lw	x25,4(x2)
   42d08:	b3dff06f          	jal	x0,42844 <_malloc_r+0x23c>
   42d0c:	05400693          	addi	x13,x0,84
   42d10:	06e6ee63          	bltu	x13,x14,42d8c <_malloc_r+0x784>
   42d14:	00c7d713          	srli	x14,x15,0xc
   42d18:	06f70613          	addi	x12,x14,111
   42d1c:	00361613          	slli	x12,x12,0x3
   42d20:	06e70693          	addi	x13,x14,110
   42d24:	db5ff06f          	jal	x0,42ad8 <_malloc_r+0x4d0>
   42d28:	15400713          	addi	x14,x0,340
   42d2c:	06f76e63          	bltu	x14,x15,42da8 <_malloc_r+0x7a0>
   42d30:	00f4d793          	srli	x15,x9,0xf
   42d34:	07878593          	addi	x11,x15,120
   42d38:	07778813          	addi	x16,x15,119
   42d3c:	00359613          	slli	x12,x11,0x3
   42d40:	9a5ff06f          	jal	x0,426e4 <_malloc_r+0xdc>
   42d44:	00047c37          	lui	x24,0x47
   42d48:	944c0c13          	addi	x24,x24,-1724 # 46944 <__malloc_current_mallinfo>
   42d4c:	000c2703          	lw	x14,0(x24)
   42d50:	00ea8733          	add	x14,x21,x14
   42d54:	00ec2023          	sw	x14,0(x24)
   42d58:	bb5ff06f          	jal	x0,4290c <_malloc_r+0x304>
   42d5c:	00892403          	lw	x8,8(x18)
   42d60:	00442783          	lw	x15,4(x8)
   42d64:	c99ff06f          	jal	x0,429fc <_malloc_r+0x3f4>
   42d68:	01451793          	slli	x15,x10,0x14
   42d6c:	ba0790e3          	bne	x15,x0,4290c <_malloc_r+0x304>
   42d70:	00892b83          	lw	x23,8(x18)
   42d74:	015b07b3          	add	x15,x22,x21
   42d78:	0017e793          	ori	x15,x15,1
   42d7c:	00fba223          	sw	x15,4(x23)
   42d80:	c41ff06f          	jal	x0,429c0 <_malloc_r+0x3b8>
   42d84:	8171a423          	sw	x23,-2040(x3) # 44120 <__malloc_sbrk_base>
   42d88:	b9dff06f          	jal	x0,42924 <_malloc_r+0x31c>
   42d8c:	15400693          	addi	x13,x0,340
   42d90:	04e6e463          	bltu	x13,x14,42dd8 <_malloc_r+0x7d0>
   42d94:	00f7d713          	srli	x14,x15,0xf
   42d98:	07870613          	addi	x12,x14,120
   42d9c:	00361613          	slli	x12,x12,0x3
   42da0:	07770693          	addi	x13,x14,119
   42da4:	d35ff06f          	jal	x0,42ad8 <_malloc_r+0x4d0>
   42da8:	55400713          	addi	x14,x0,1364
   42dac:	04f76463          	bltu	x14,x15,42df4 <_malloc_r+0x7ec>
   42db0:	0124d793          	srli	x15,x9,0x12
   42db4:	07d78593          	addi	x11,x15,125
   42db8:	07c78813          	addi	x16,x15,124
   42dbc:	00359613          	slli	x12,x11,0x3
   42dc0:	925ff06f          	jal	x0,426e4 <_malloc_r+0xdc>
   42dc4:	ff8c8c93          	addi	x25,x25,-8
   42dc8:	019a8ab3          	add	x21,x21,x25
   42dcc:	417a8ab3          	sub	x21,x21,x23
   42dd0:	00000a13          	addi	x20,x0,0
   42dd4:	b99ff06f          	jal	x0,4296c <_malloc_r+0x364>
   42dd8:	55400693          	addi	x13,x0,1364
   42ddc:	02e6e463          	bltu	x13,x14,42e04 <_malloc_r+0x7fc>
   42de0:	0127d713          	srli	x14,x15,0x12
   42de4:	07d70613          	addi	x12,x14,125
   42de8:	00361613          	slli	x12,x12,0x3
   42dec:	07c70693          	addi	x13,x14,124
   42df0:	ce9ff06f          	jal	x0,42ad8 <_malloc_r+0x4d0>
   42df4:	3f800613          	addi	x12,x0,1016
   42df8:	07f00593          	addi	x11,x0,127
   42dfc:	07e00813          	addi	x16,x0,126
   42e00:	8e5ff06f          	jal	x0,426e4 <_malloc_r+0xdc>
   42e04:	3f800613          	addi	x12,x0,1016
   42e08:	07e00693          	addi	x13,x0,126
   42e0c:	ccdff06f          	jal	x0,42ad8 <_malloc_r+0x4d0>
   42e10:	00492783          	lw	x15,4(x18)
   42e14:	e3dff06f          	jal	x0,42c50 <_malloc_r+0x648>

00042e18 <__malloc_lock>:
   42e18:	00008067          	jalr	x0,0(x1)

00042e1c <__malloc_unlock>:
   42e1c:	00008067          	jalr	x0,0(x1)

00042e20 <_sbrk_r>:
   42e20:	ff010113          	addi	x2,x2,-16
   42e24:	00812423          	sw	x8,8(x2)
   42e28:	00912223          	sw	x9,4(x2)
   42e2c:	00050413          	addi	x8,x10,0
   42e30:	00058513          	addi	x10,x11,0
   42e34:	00112623          	sw	x1,12(x2)
   42e38:	8401a823          	sw	x0,-1968(x3) # 44168 <errno>
   42e3c:	f98ff0ef          	jal	x1,425d4 <_sbrk>
   42e40:	fff00793          	addi	x15,x0,-1
   42e44:	00f50c63          	beq	x10,x15,42e5c <_sbrk_r+0x3c>
   42e48:	00c12083          	lw	x1,12(x2)
   42e4c:	00812403          	lw	x8,8(x2)
   42e50:	00412483          	lw	x9,4(x2)
   42e54:	01010113          	addi	x2,x2,16
   42e58:	00008067          	jalr	x0,0(x1)
   42e5c:	8501a783          	lw	x15,-1968(x3) # 44168 <errno>
   42e60:	fe0784e3          	beq	x15,x0,42e48 <_sbrk_r+0x28>
   42e64:	00c12083          	lw	x1,12(x2)
   42e68:	00f42023          	sw	x15,0(x8)
   42e6c:	00812403          	lw	x8,8(x2)
   42e70:	00412483          	lw	x9,4(x2)
   42e74:	01010113          	addi	x2,x2,16
   42e78:	00008067          	jalr	x0,0(x1)

00042e7c <__libc_init_array>:
   42e7c:	ff010113          	addi	x2,x2,-16
   42e80:	00812423          	sw	x8,8(x2)
   42e84:	01212023          	sw	x18,0(x2)
   42e88:	00000793          	addi	x15,x0,0
   42e8c:	00000713          	addi	x14,x0,0
   42e90:	00112623          	sw	x1,12(x2)
   42e94:	00912223          	sw	x9,4(x2)
   42e98:	40e78933          	sub	x18,x15,x14
   42e9c:	02e78263          	beq	x15,x14,42ec0 <__libc_init_array+0x44>
   42ea0:	40295913          	srai	x18,x18,0x2
   42ea4:	00000413          	addi	x8,x0,0
   42ea8:	00000493          	addi	x9,x0,0
   42eac:	00042783          	lw	x15,0(x8)
   42eb0:	00148493          	addi	x9,x9,1
   42eb4:	00440413          	addi	x8,x8,4
   42eb8:	000780e7          	jalr	x1,0(x15)
   42ebc:	ff24e8e3          	bltu	x9,x18,42eac <__libc_init_array+0x30>
   42ec0:	00000793          	addi	x15,x0,0
   42ec4:	00000713          	addi	x14,x0,0
   42ec8:	40e78933          	sub	x18,x15,x14
   42ecc:	40295913          	srai	x18,x18,0x2
   42ed0:	02e78063          	beq	x15,x14,42ef0 <__libc_init_array+0x74>
   42ed4:	00000413          	addi	x8,x0,0
   42ed8:	00000493          	addi	x9,x0,0
   42edc:	00042783          	lw	x15,0(x8)
   42ee0:	00148493          	addi	x9,x9,1
   42ee4:	00440413          	addi	x8,x8,4
   42ee8:	000780e7          	jalr	x1,0(x15)
   42eec:	ff24e8e3          	bltu	x9,x18,42edc <__libc_init_array+0x60>
   42ef0:	00c12083          	lw	x1,12(x2)
   42ef4:	00812403          	lw	x8,8(x2)
   42ef8:	00412483          	lw	x9,4(x2)
   42efc:	00012903          	lw	x18,0(x2)
   42f00:	01010113          	addi	x2,x2,16
   42f04:	00008067          	jalr	x0,0(x1)

00042f08 <strcpy>:
   42f08:	00b567b3          	or	x15,x10,x11
   42f0c:	0037f793          	andi	x15,x15,3
   42f10:	08079063          	bne	x15,x0,42f90 <strcpy+0x88>
   42f14:	0005a703          	lw	x14,0(x11)
   42f18:	7f7f86b7          	lui	x13,0x7f7f8
   42f1c:	f7f68693          	addi	x13,x13,-129 # 7f7f7f7f <__stack_top+0x7f7a7f7f>
   42f20:	00d77833          	and	x16,x14,x13
   42f24:	00d80833          	add	x16,x16,x13
   42f28:	00e86833          	or	x16,x16,x14
   42f2c:	00d86833          	or	x16,x16,x13
   42f30:	fff00793          	addi	x15,x0,-1
   42f34:	00050613          	addi	x12,x10,0
   42f38:	02f81463          	bne	x16,x15,42f60 <strcpy+0x58>
   42f3c:	00458593          	addi	x11,x11,4
   42f40:	00e62023          	sw	x14,0(x12)
   42f44:	0005a703          	lw	x14,0(x11)
   42f48:	00460613          	addi	x12,x12,4
   42f4c:	00d777b3          	and	x15,x14,x13
   42f50:	00d787b3          	add	x15,x15,x13
   42f54:	00e7e7b3          	or	x15,x15,x14
   42f58:	00d7e7b3          	or	x15,x15,x13
   42f5c:	ff0780e3          	beq	x15,x16,42f3c <strcpy+0x34>
   42f60:	0005c783          	lbu	x15,0(x11)
   42f64:	0015c703          	lbu	x14,1(x11)
   42f68:	0025c683          	lbu	x13,2(x11)
   42f6c:	00f60023          	sb	x15,0(x12)
   42f70:	00078a63          	beq	x15,x0,42f84 <strcpy+0x7c>
   42f74:	00e600a3          	sb	x14,1(x12)
   42f78:	00070663          	beq	x14,x0,42f84 <strcpy+0x7c>
   42f7c:	00d60123          	sb	x13,2(x12)
   42f80:	00069463          	bne	x13,x0,42f88 <strcpy+0x80>
   42f84:	00008067          	jalr	x0,0(x1)
   42f88:	000601a3          	sb	x0,3(x12)
   42f8c:	00008067          	jalr	x0,0(x1)
   42f90:	00050793          	addi	x15,x10,0
   42f94:	0005c703          	lbu	x14,0(x11)
   42f98:	00178793          	addi	x15,x15,1
   42f9c:	00158593          	addi	x11,x11,1
   42fa0:	fee78fa3          	sb	x14,-1(x15)
   42fa4:	fe0718e3          	bne	x14,x0,42f94 <strcpy+0x8c>
   42fa8:	00008067          	jalr	x0,0(x1)

00042fac <_malloc_trim_r>:
   42fac:	fe010113          	addi	x2,x2,-32
   42fb0:	01312623          	sw	x19,12(x2)
   42fb4:	000449b7          	lui	x19,0x44
   42fb8:	00812c23          	sw	x8,24(x2)
   42fbc:	00912a23          	sw	x9,20(x2)
   42fc0:	01212823          	sw	x18,16(x2)
   42fc4:	01412423          	sw	x20,8(x2)
   42fc8:	00112e23          	sw	x1,28(x2)
   42fcc:	00058a13          	addi	x20,x11,0
   42fd0:	00050913          	addi	x18,x10,0
   42fd4:	bf098993          	addi	x19,x19,-1040 # 43bf0 <__malloc_av_>
   42fd8:	e41ff0ef          	jal	x1,42e18 <__malloc_lock>
   42fdc:	0089a783          	lw	x15,8(x19)
   42fe0:	00001437          	lui	x8,0x1
   42fe4:	fef40413          	addi	x8,x8,-17 # fef <_start-0x3f011>
   42fe8:	0047a483          	lw	x9,4(x15)
   42fec:	000017b7          	lui	x15,0x1
   42ff0:	ffc4f493          	andi	x9,x9,-4
   42ff4:	00848433          	add	x8,x9,x8
   42ff8:	41440433          	sub	x8,x8,x20
   42ffc:	00c45413          	srli	x8,x8,0xc
   43000:	fff40413          	addi	x8,x8,-1
   43004:	00c41413          	slli	x8,x8,0xc
   43008:	00f44e63          	blt	x8,x15,43024 <_malloc_trim_r+0x78>
   4300c:	00000593          	addi	x11,x0,0
   43010:	00090513          	addi	x10,x18,0
   43014:	e0dff0ef          	jal	x1,42e20 <_sbrk_r>
   43018:	0089a783          	lw	x15,8(x19)
   4301c:	009787b3          	add	x15,x15,x9
   43020:	02f50863          	beq	x10,x15,43050 <_malloc_trim_r+0xa4>
   43024:	00090513          	addi	x10,x18,0
   43028:	df5ff0ef          	jal	x1,42e1c <__malloc_unlock>
   4302c:	01c12083          	lw	x1,28(x2)
   43030:	01812403          	lw	x8,24(x2)
   43034:	01412483          	lw	x9,20(x2)
   43038:	01012903          	lw	x18,16(x2)
   4303c:	00c12983          	lw	x19,12(x2)
   43040:	00812a03          	lw	x20,8(x2)
   43044:	00000513          	addi	x10,x0,0
   43048:	02010113          	addi	x2,x2,32
   4304c:	00008067          	jalr	x0,0(x1)
   43050:	408005b3          	sub	x11,x0,x8
   43054:	00090513          	addi	x10,x18,0
   43058:	dc9ff0ef          	jal	x1,42e20 <_sbrk_r>
   4305c:	fff00793          	addi	x15,x0,-1
   43060:	04f50a63          	beq	x10,x15,430b4 <_malloc_trim_r+0x108>
   43064:	000477b7          	lui	x15,0x47
   43068:	94478793          	addi	x15,x15,-1724 # 46944 <__malloc_current_mallinfo>
   4306c:	0089a683          	lw	x13,8(x19)
   43070:	0007a703          	lw	x14,0(x15)
   43074:	408484b3          	sub	x9,x9,x8
   43078:	0014e493          	ori	x9,x9,1
   4307c:	00090513          	addi	x10,x18,0
   43080:	40870733          	sub	x14,x14,x8
   43084:	0096a223          	sw	x9,4(x13)
   43088:	00e7a023          	sw	x14,0(x15)
   4308c:	d91ff0ef          	jal	x1,42e1c <__malloc_unlock>
   43090:	01c12083          	lw	x1,28(x2)
   43094:	01812403          	lw	x8,24(x2)
   43098:	01412483          	lw	x9,20(x2)
   4309c:	01012903          	lw	x18,16(x2)
   430a0:	00c12983          	lw	x19,12(x2)
   430a4:	00812a03          	lw	x20,8(x2)
   430a8:	00100513          	addi	x10,x0,1
   430ac:	02010113          	addi	x2,x2,32
   430b0:	00008067          	jalr	x0,0(x1)
   430b4:	00000593          	addi	x11,x0,0
   430b8:	00090513          	addi	x10,x18,0
   430bc:	d65ff0ef          	jal	x1,42e20 <_sbrk_r>
   430c0:	0089a703          	lw	x14,8(x19)
   430c4:	00f00693          	addi	x13,x0,15
   430c8:	40e507b3          	sub	x15,x10,x14
   430cc:	f4f6dce3          	bge	x13,x15,43024 <_malloc_trim_r+0x78>
   430d0:	8081a603          	lw	x12,-2040(x3) # 44120 <__malloc_sbrk_base>
   430d4:	0017e793          	ori	x15,x15,1
   430d8:	000476b7          	lui	x13,0x47
   430dc:	40c50533          	sub	x10,x10,x12
   430e0:	00f72223          	sw	x15,4(x14)
   430e4:	94a6a223          	sw	x10,-1724(x13) # 46944 <__malloc_current_mallinfo>
   430e8:	f3dff06f          	jal	x0,43024 <_malloc_trim_r+0x78>

000430ec <_free_r>:
   430ec:	12058663          	beq	x11,x0,43218 <_free_r+0x12c>
   430f0:	ff010113          	addi	x2,x2,-16
   430f4:	00812423          	sw	x8,8(x2)
   430f8:	00912223          	sw	x9,4(x2)
   430fc:	00058413          	addi	x8,x11,0
   43100:	00050493          	addi	x9,x10,0
   43104:	00112623          	sw	x1,12(x2)
   43108:	d11ff0ef          	jal	x1,42e18 <__malloc_lock>
   4310c:	ffc42503          	lw	x10,-4(x8)
   43110:	ff840713          	addi	x14,x8,-8
   43114:	000445b7          	lui	x11,0x44
   43118:	ffe57793          	andi	x15,x10,-2
   4311c:	00f70633          	add	x12,x14,x15
   43120:	bf058593          	addi	x11,x11,-1040 # 43bf0 <__malloc_av_>
   43124:	00462683          	lw	x13,4(x12)
   43128:	0085a803          	lw	x16,8(x11)
   4312c:	00157893          	andi	x17,x10,1
   43130:	ffc6f693          	andi	x13,x13,-4
   43134:	18c80c63          	beq	x16,x12,432cc <_free_r+0x1e0>
   43138:	00d62223          	sw	x13,4(x12)
   4313c:	00d60833          	add	x16,x12,x13
   43140:	00482803          	lw	x16,4(x16)
   43144:	00187813          	andi	x16,x16,1
   43148:	08089c63          	bne	x17,x0,431e0 <_free_r+0xf4>
   4314c:	ff842303          	lw	x6,-8(x8)
   43150:	00044537          	lui	x10,0x44
   43154:	bf850513          	addi	x10,x10,-1032 # 43bf8 <__malloc_av_+0x8>
   43158:	40670733          	sub	x14,x14,x6
   4315c:	00872883          	lw	x17,8(x14)
   43160:	006787b3          	add	x15,x15,x6
   43164:	12a88e63          	beq	x17,x10,432a0 <_free_r+0x1b4>
   43168:	00c72303          	lw	x6,12(x14)
   4316c:	0068a623          	sw	x6,12(x17)
   43170:	01132423          	sw	x17,8(x6)
   43174:	1a080063          	beq	x16,x0,43314 <_free_r+0x228>
   43178:	0017e693          	ori	x13,x15,1
   4317c:	00d72223          	sw	x13,4(x14)
   43180:	00f62023          	sw	x15,0(x12)
   43184:	1ff00693          	addi	x13,x0,511
   43188:	0af6e463          	bltu	x13,x15,43230 <_free_r+0x144>
   4318c:	ff87f693          	andi	x13,x15,-8
   43190:	00868693          	addi	x13,x13,8
   43194:	0045a503          	lw	x10,4(x11)
   43198:	00d586b3          	add	x13,x11,x13
   4319c:	0006a603          	lw	x12,0(x13)
   431a0:	0057d813          	srli	x16,x15,0x5
   431a4:	00100793          	addi	x15,x0,1
   431a8:	010797b3          	sll	x15,x15,x16
   431ac:	00a7e7b3          	or	x15,x15,x10
   431b0:	ff868513          	addi	x10,x13,-8
   431b4:	00c72423          	sw	x12,8(x14)
   431b8:	00a72623          	sw	x10,12(x14)
   431bc:	00f5a223          	sw	x15,4(x11)
   431c0:	00e6a023          	sw	x14,0(x13)
   431c4:	00e62623          	sw	x14,12(x12)
   431c8:	00812403          	lw	x8,8(x2)
   431cc:	00c12083          	lw	x1,12(x2)
   431d0:	00048513          	addi	x10,x9,0
   431d4:	00412483          	lw	x9,4(x2)
   431d8:	01010113          	addi	x2,x2,16
   431dc:	c41ff06f          	jal	x0,42e1c <__malloc_unlock>
   431e0:	02081e63          	bne	x16,x0,4321c <_free_r+0x130>
   431e4:	00044537          	lui	x10,0x44
   431e8:	00d787b3          	add	x15,x15,x13
   431ec:	bf850513          	addi	x10,x10,-1032 # 43bf8 <__malloc_av_+0x8>
   431f0:	00862683          	lw	x13,8(x12)
   431f4:	0017e893          	ori	x17,x15,1
   431f8:	00f70833          	add	x16,x14,x15
   431fc:	16a68263          	beq	x13,x10,43360 <_free_r+0x274>
   43200:	00c62603          	lw	x12,12(x12)
   43204:	00c6a623          	sw	x12,12(x13)
   43208:	00d62423          	sw	x13,8(x12)
   4320c:	01172223          	sw	x17,4(x14)
   43210:	00f82023          	sw	x15,0(x16)
   43214:	f71ff06f          	jal	x0,43184 <_free_r+0x98>
   43218:	00008067          	jalr	x0,0(x1)
   4321c:	00156513          	ori	x10,x10,1
   43220:	fea42e23          	sw	x10,-4(x8)
   43224:	00f62023          	sw	x15,0(x12)
   43228:	1ff00693          	addi	x13,x0,511
   4322c:	f6f6f0e3          	bgeu	x13,x15,4318c <_free_r+0xa0>
   43230:	0097d693          	srli	x13,x15,0x9
   43234:	00400613          	addi	x12,x0,4
   43238:	0ed66263          	bltu	x12,x13,4331c <_free_r+0x230>
   4323c:	0067d693          	srli	x13,x15,0x6
   43240:	03968513          	addi	x10,x13,57
   43244:	00351513          	slli	x10,x10,0x3
   43248:	03868613          	addi	x12,x13,56
   4324c:	00a58533          	add	x10,x11,x10
   43250:	00052683          	lw	x13,0(x10)
   43254:	ff850513          	addi	x10,x10,-8
   43258:	00d51863          	bne	x10,x13,43268 <_free_r+0x17c>
   4325c:	1200006f          	jal	x0,4337c <_free_r+0x290>
   43260:	0086a683          	lw	x13,8(x13)
   43264:	00d50863          	beq	x10,x13,43274 <_free_r+0x188>
   43268:	0046a603          	lw	x12,4(x13)
   4326c:	ffc67613          	andi	x12,x12,-4
   43270:	fec7e8e3          	bltu	x15,x12,43260 <_free_r+0x174>
   43274:	00c6a503          	lw	x10,12(x13)
   43278:	00a72623          	sw	x10,12(x14)
   4327c:	00d72423          	sw	x13,8(x14)
   43280:	00812403          	lw	x8,8(x2)
   43284:	00e52423          	sw	x14,8(x10)
   43288:	00c12083          	lw	x1,12(x2)
   4328c:	00048513          	addi	x10,x9,0
   43290:	00412483          	lw	x9,4(x2)
   43294:	00e6a623          	sw	x14,12(x13)
   43298:	01010113          	addi	x2,x2,16
   4329c:	b81ff06f          	jal	x0,42e1c <__malloc_unlock>
   432a0:	0a081063          	bne	x16,x0,43340 <_free_r+0x254>
   432a4:	00c62583          	lw	x11,12(x12)
   432a8:	00862603          	lw	x12,8(x12)
   432ac:	00f686b3          	add	x13,x13,x15
   432b0:	0016e793          	ori	x15,x13,1
   432b4:	00b62623          	sw	x11,12(x12)
   432b8:	00c5a423          	sw	x12,8(x11)
   432bc:	00f72223          	sw	x15,4(x14)
   432c0:	00d70733          	add	x14,x14,x13
   432c4:	00d72023          	sw	x13,0(x14)
   432c8:	f01ff06f          	jal	x0,431c8 <_free_r+0xdc>
   432cc:	00d786b3          	add	x13,x15,x13
   432d0:	02089063          	bne	x17,x0,432f0 <_free_r+0x204>
   432d4:	ff842503          	lw	x10,-8(x8)
   432d8:	40a70733          	sub	x14,x14,x10
   432dc:	00c72783          	lw	x15,12(x14)
   432e0:	00872603          	lw	x12,8(x14)
   432e4:	00a686b3          	add	x13,x13,x10
   432e8:	00f62623          	sw	x15,12(x12)
   432ec:	00c7a423          	sw	x12,8(x15)
   432f0:	0016e613          	ori	x12,x13,1
   432f4:	80c1a783          	lw	x15,-2036(x3) # 44124 <__malloc_trim_threshold>
   432f8:	00c72223          	sw	x12,4(x14)
   432fc:	00e5a423          	sw	x14,8(x11)
   43300:	ecf6e4e3          	bltu	x13,x15,431c8 <_free_r+0xdc>
   43304:	84c1a583          	lw	x11,-1972(x3) # 44164 <__malloc_top_pad>
   43308:	00048513          	addi	x10,x9,0
   4330c:	ca1ff0ef          	jal	x1,42fac <_malloc_trim_r>
   43310:	eb9ff06f          	jal	x0,431c8 <_free_r+0xdc>
   43314:	00d787b3          	add	x15,x15,x13
   43318:	ed9ff06f          	jal	x0,431f0 <_free_r+0x104>
   4331c:	01400613          	addi	x12,x0,20
   43320:	02d67863          	bgeu	x12,x13,43350 <_free_r+0x264>
   43324:	05400613          	addi	x12,x0,84
   43328:	06d66863          	bltu	x12,x13,43398 <_free_r+0x2ac>
   4332c:	00c7d693          	srli	x13,x15,0xc
   43330:	06f68513          	addi	x10,x13,111
   43334:	00351513          	slli	x10,x10,0x3
   43338:	06e68613          	addi	x12,x13,110
   4333c:	f11ff06f          	jal	x0,4324c <_free_r+0x160>
   43340:	0017e693          	ori	x13,x15,1
   43344:	00d72223          	sw	x13,4(x14)
   43348:	00f62023          	sw	x15,0(x12)
   4334c:	e7dff06f          	jal	x0,431c8 <_free_r+0xdc>
   43350:	05c68513          	addi	x10,x13,92
   43354:	00351513          	slli	x10,x10,0x3
   43358:	05b68613          	addi	x12,x13,91
   4335c:	ef1ff06f          	jal	x0,4324c <_free_r+0x160>
   43360:	00e5aa23          	sw	x14,20(x11)
   43364:	00e5a823          	sw	x14,16(x11)
   43368:	00a72623          	sw	x10,12(x14)
   4336c:	00a72423          	sw	x10,8(x14)
   43370:	01172223          	sw	x17,4(x14)
   43374:	00f82023          	sw	x15,0(x16)
   43378:	e51ff06f          	jal	x0,431c8 <_free_r+0xdc>
   4337c:	0045a803          	lw	x16,4(x11)
   43380:	40265613          	srai	x12,x12,0x2
   43384:	00100793          	addi	x15,x0,1
   43388:	00c797b3          	sll	x15,x15,x12
   4338c:	0107e7b3          	or	x15,x15,x16
   43390:	00f5a223          	sw	x15,4(x11)
   43394:	ee5ff06f          	jal	x0,43278 <_free_r+0x18c>
   43398:	15400613          	addi	x12,x0,340
   4339c:	00d66c63          	bltu	x12,x13,433b4 <_free_r+0x2c8>
   433a0:	00f7d693          	srli	x13,x15,0xf
   433a4:	07868513          	addi	x10,x13,120
   433a8:	00351513          	slli	x10,x10,0x3
   433ac:	07768613          	addi	x12,x13,119
   433b0:	e9dff06f          	jal	x0,4324c <_free_r+0x160>
   433b4:	55400613          	addi	x12,x0,1364
   433b8:	00d66c63          	bltu	x12,x13,433d0 <_free_r+0x2e4>
   433bc:	0127d693          	srli	x13,x15,0x12
   433c0:	07d68513          	addi	x10,x13,125
   433c4:	00351513          	slli	x10,x10,0x3
   433c8:	07c68613          	addi	x12,x13,124
   433cc:	e81ff06f          	jal	x0,4324c <_free_r+0x160>
   433d0:	3f800513          	addi	x10,x0,1016
   433d4:	07e00613          	addi	x12,x0,126
   433d8:	e75ff06f          	jal	x0,4324c <_free_r+0x160>
